
flashboot.elf:     file format elf32-littleriscv


Disassembly of section .text.entry:

00a28300 <_start>:
  a28300:	0040006f          	j	a28304 <Reset_Handler>

00a28304 <Reset_Handler>:
  a28304:	00000293          	li	t0,0
  a28308:	3a029073          	csrw	pmpcfg0,t0
  a2830c:	00000293          	li	t0,0
  a28310:	3a129073          	csrw	pmpcfg1,t0
  a28314:	00000293          	li	t0,0
  a28318:	3a229073          	csrw	pmpcfg2,t0
  a2831c:	00000293          	li	t0,0
  a28320:	3a329073          	csrw	pmpcfg3,t0
  a28324:	00000293          	li	t0,0
  a28328:	7d929073          	csrw	0x7d9,t0
  a2832c:	fffdd297          	auipc	t0,0xfffdd
  a28330:	7d828293          	addi	t0,t0,2008 # a05b04 <__bss_end__>
  a28334:	00050313          	mv	t1,a0
  a28338:	00032e03          	lw	t3,0(t1)
  a2833c:	01c2a023          	sw	t3,0(t0)
  a28340:	00009297          	auipc	t0,0x9
  a28344:	19c28293          	addi	t0,t0,412 # a314dc <trap_vector>
  a28348:	00128293          	addi	t0,t0,1
  a2834c:	30529073          	csrw	mtvec,t0
  a28350:	30005073          	csrwi	mstatus,0
  a28354:	30405073          	csrwi	mie,0
  a28358:	0000c197          	auipc	gp,0xc
  a2835c:	46418193          	addi	gp,gp,1124 # a347bc <_gp_>
  a28360:	fffdd117          	auipc	sp,0xfffdd
  a28364:	9a010113          	addi	sp,sp,-1632 # a04d00 <__stack_top__>
  a28368:	fffdb297          	auipc	t0,0xfffdb
  a2836c:	d9828293          	addi	t0,t0,-616 # a03100 <g_system_stack_begin>
  a28370:	fffdd317          	auipc	t1,0xfffdd
  a28374:	19030313          	addi	t1,t1,400 # a05500 <g_flash_cmd_funcs>
  a28378:	00628c63          	beq	t0,t1,a28390 <end_set_stack_loop>
  a2837c:	efbeb3b7          	lui	t2,0xefbeb
  a28380:	dde38393          	addi	t2,t2,-546 # efbeadde <_gp_+0xef1b6622>

00a28384 <set_stack_loop>:
  a28384:	0072a023          	sw	t2,0(t0)
  a28388:	00428293          	addi	t0,t0,4
  a2838c:	fe62cce3          	blt	t0,t1,a28384 <set_stack_loop>

00a28390 <end_set_stack_loop>:
  a28390:	00000093          	li	ra,0
  a28394:	00000213          	li	tp,0
  a28398:	00000413          	li	s0,0
  a2839c:	00000493          	li	s1,0
  a283a0:	00000513          	li	a0,0
  a283a4:	00000593          	li	a1,0
  a283a8:	00000613          	li	a2,0
  a283ac:	00000693          	li	a3,0
  a283b0:	00000713          	li	a4,0
  a283b4:	00000793          	li	a5,0
  a283b8:	00000813          	li	a6,0
  a283bc:	00000893          	li	a7,0
  a283c0:	00000913          	li	s2,0
  a283c4:	00000993          	li	s3,0
  a283c8:	00000a13          	li	s4,0
  a283cc:	00000a93          	li	s5,0
  a283d0:	00000b13          	li	s6,0
  a283d4:	00000b93          	li	s7,0
  a283d8:	00000c13          	li	s8,0
  a283dc:	00000c93          	li	s9,0
  a283e0:	00000d13          	li	s10,0
  a283e4:	00000d93          	li	s11,0
  a283e8:	00000e13          	li	t3,0
  a283ec:	00000e93          	li	t4,0
  a283f0:	00000f13          	li	t5,0
  a283f4:	00000f93          	li	t6,0
  a283f8:	fffdd297          	auipc	t0,0xfffdd
  a283fc:	10828293          	addi	t0,t0,264 # a05500 <g_flash_cmd_funcs>
  a28400:	fffdd317          	auipc	t1,0xfffdd
  a28404:	70430313          	addi	t1,t1,1796 # a05b04 <__bss_end__>
  a28408:	00628a63          	beq	t0,t1,a2841c <end_clear_bss_loop>
  a2840c:	00000393          	li	t2,0

00a28410 <clear_bss_loop>:
  a28410:	0072a023          	sw	t2,0(t0)
  a28414:	00428293          	addi	t0,t0,4
  a28418:	fe62cce3          	blt	t0,t1,a28410 <clear_bss_loop>

00a2841c <end_clear_bss_loop>:
  a2841c:	25d0006f          	j	a28e78 <start_fastboot>

00a28420 <g_ram_exception_table>:
  a28420:	00a313e0 00a2d204 00a2d204 00a2d204     ................
  a28430:	00a2d204 00a2d204 00a2d204 00a2d204     ................
  a28440:	00a2d204 00a2d204 00a2d204 00a2d204     ................
  a28450:	00a2d218 00a2d204 00a2d204 00a2d204     ................
  a28460:	00a2d204 00a2d204 00a2d204 00a2d204     ................
  a28470:	00a2d204 00a2d204 00a2d204 00a2d204     ................
  a28480:	00a2d204 00a2d204 00a2cde0 00a2cde0     ................
  a28490:	00a2cde0 00a2cde0 00a2cde0 00a2cde0     ................
  a284a0:	00a2cde0 00a2cde0 00a2cde0 00a2cde0     ................
  a284b0:	00a2cde0 00a2cde0 00a2cde0 00a2cde0     ................
  a284c0:	00a2cde0 00a2cde0 00a2cde0 00a2cde0     ................
  a284d0:	00a2cde0 00a2cde0 00a2cde0 00a2cde0     ................
  a284e0:	00a2cde0 00a2cde0 00a2cde0 00a2cde0     ................
  a284f0:	00a2cde0 00a2cde0 00a2cde0 00a2cde0     ................
  a28500:	00a2cde0 00a2cde0 00a2cde0 00a2cde0     ................
  a28510:	00a2cde0 00a2cde0 00a2cde0 00a2cde0     ................
  a28520:	00a2cde0 00a2cde0 00a2cde0 00a2cde0     ................
  a28530:	00a2cde0 00a2cde0 00a2cde0 00a2cde0     ................
  a28540:	00a2cde0 00a2cde0                       ........

Disassembly of section .text:

00a28550 <exc_syscall>:
  a28550:	8082                	ret

00a28552 <handle_syscall>:
  a28552:	0411                	addi	s0,s0,4
  a28554:	c022                	sw	s0,0(sp)
  a28556:	3fed                	jal	ra,a28550 <exc_syscall>
  a28558:	42d2                	lw	t0,20(sp)
  a2855a:	34129073          	csrw	mepc,t0
  a2855e:	5d82                	lw	s11,32(sp)
  a28560:	5d12                	lw	s10,36(sp)
  a28562:	5ca2                	lw	s9,40(sp)
  a28564:	5c32                	lw	s8,44(sp)
  a28566:	5bc2                	lw	s7,48(sp)
  a28568:	5b52                	lw	s6,52(sp)
  a2856a:	5ae2                	lw	s5,56(sp)
  a2856c:	5a72                	lw	s4,60(sp)
  a2856e:	4986                	lw	s3,64(sp)
  a28570:	4916                	lw	s2,68(sp)
  a28572:	44a6                	lw	s1,72(sp)
  a28574:	4436                	lw	s0,76(sp)
  a28576:	4fc6                	lw	t6,80(sp)
  a28578:	4f56                	lw	t5,84(sp)
  a2857a:	4ee6                	lw	t4,88(sp)
  a2857c:	4e76                	lw	t3,92(sp)
  a2857e:	5886                	lw	a7,96(sp)
  a28580:	5816                	lw	a6,100(sp)
  a28582:	57a6                	lw	a5,104(sp)
  a28584:	5736                	lw	a4,108(sp)
  a28586:	56c6                	lw	a3,112(sp)
  a28588:	5656                	lw	a2,116(sp)
  a2858a:	55e6                	lw	a1,120(sp)
  a2858c:	5576                	lw	a0,124(sp)
  a2858e:	438a                	lw	t2,128(sp)
  a28590:	431a                	lw	t1,132(sp)
  a28592:	42aa                	lw	t0,136(sp)
  a28594:	40ba                	lw	ra,140(sp)
  a28596:	6149                	addi	sp,sp,144
  a28598:	30200073          	mret

00a2859c <__udivdi3>:
  a2859c:	4701                	li	a4,0
  a2859e:	a039                	j	a285ac <__udivmoddi4>

00a285a0 <__umoddi3>:
  a285a0:	8118                	push	{ra},-32
  a285a2:	0038                	addi	a4,sp,8
  a285a4:	2021                	jal	ra,a285ac <__udivmoddi4>
  a285a6:	4522                	lw	a0,8(sp)
  a285a8:	45b2                	lw	a1,12(sp)
  a285aa:	8114                	popret	{ra},32

00a285ac <__udivmoddi4>:
  a285ac:	88b6                	mv	a7,a3
  a285ae:	8832                	mv	a6,a2
  a285b0:	87aa                	mv	a5,a0
  a285b2:	8e2e                	mv	t3,a1
  a285b4:	eedd                	bnez	a3,a28672 <__udivmoddi4+0xc6>
  a285b6:	12c5f163          	bgeu	a1,a2,a286d8 <__udivmoddi4+0x12c>
  a285ba:	66c1                	lui	a3,0x10
  a285bc:	1cd66a63          	bltu	a2,a3,a28790 <__udivmoddi4+0x1e4>
  a285c0:	010006b7          	lui	a3,0x1000
  a285c4:	3ad66563          	bltu	a2,a3,a2896e <__udivmoddi4+0x3c2>
  a285c8:	01865313          	srli	t1,a2,0x18
  a285cc:	48e1                	li	a7,24
  a285ce:	0000c697          	auipc	a3,0xc
  a285d2:	9e26a683          	lw	a3,-1566(a3) # a33fb0 <_GLOBAL_OFFSET_TABLE_+0x4>
  a285d6:	969a                	add	a3,a3,t1
  a285d8:	2294                	lbu	a3,0(a3)
  a285da:	02000313          	li	t1,32
  a285de:	98b6                	add	a7,a7,a3
  a285e0:	41130333          	sub	t1,t1,a7
  a285e4:	00030c63          	beqz	t1,a285fc <__udivmoddi4+0x50>
  a285e8:	006595b3          	sll	a1,a1,t1
  a285ec:	011558b3          	srl	a7,a0,a7
  a285f0:	00661833          	sll	a6,a2,t1
  a285f4:	00b8ee33          	or	t3,a7,a1
  a285f8:	006517b3          	sll	a5,a0,t1
  a285fc:	01085e93          	srli	t4,a6,0x10
  a28600:	03de5f33          	divu	t5,t3,t4
  a28604:	01081613          	slli	a2,a6,0x10
  a28608:	8241                	srli	a2,a2,0x10
  a2860a:	0107d693          	srli	a3,a5,0x10
  a2860e:	03de75b3          	remu	a1,t3,t4
  a28612:	03e60fb3          	mul	t6,a2,t5
  a28616:	20b6a69b          	orshf	a3,a3,a1,sll,16
  a2861a:	01f6fa63          	bgeu	a3,t6,a2862e <__udivmoddi4+0x82>
  a2861e:	96c2                	add	a3,a3,a6
  a28620:	ffff0593          	addi	a1,t5,-1
  a28624:	0106e463          	bltu	a3,a6,a2862c <__udivmoddi4+0x80>
  a28628:	37f6e563          	bltu	a3,t6,a28992 <__udivmoddi4+0x3e6>
  a2862c:	8f2e                	mv	t5,a1
  a2862e:	41f685b3          	sub	a1,a3,t6
  a28632:	03d5d533          	divu	a0,a1,t4
  a28636:	01079693          	slli	a3,a5,0x10
  a2863a:	82c1                	srli	a3,a3,0x10
  a2863c:	03d5f5b3          	remu	a1,a1,t4
  a28640:	02a60633          	mul	a2,a2,a0
  a28644:	20b6a79b          	orshf	a5,a3,a1,sll,16
  a28648:	00c7fa63          	bgeu	a5,a2,a2865c <__udivmoddi4+0xb0>
  a2864c:	97c2                	add	a5,a5,a6
  a2864e:	fff50693          	addi	a3,a0,-1
  a28652:	0107e463          	bltu	a5,a6,a2865a <__udivmoddi4+0xae>
  a28656:	32c7eb63          	bltu	a5,a2,a2898c <__udivmoddi4+0x3e0>
  a2865a:	8536                	mv	a0,a3
  a2865c:	8f91                	sub	a5,a5,a2
  a2865e:	21e5251b          	orshf	a0,a0,t5,sll,16
  a28662:	4581                	li	a1,0
  a28664:	c711                	beqz	a4,a28670 <__udivmoddi4+0xc4>
  a28666:	0067d7b3          	srl	a5,a5,t1
  a2866a:	c31c                	sw	a5,0(a4)
  a2866c:	00072223          	sw	zero,4(a4)
  a28670:	8082                	ret
  a28672:	00d5f963          	bgeu	a1,a3,a28684 <__udivmoddi4+0xd8>
  a28676:	12070f63          	beqz	a4,a287b4 <__udivmoddi4+0x208>
  a2867a:	c308                	sw	a0,0(a4)
  a2867c:	c34c                	sw	a1,4(a4)
  a2867e:	4501                	li	a0,0
  a28680:	4581                	li	a1,0
  a28682:	8082                	ret
  a28684:	67c1                	lui	a5,0x10
  a28686:	0ef6ed63          	bltu	a3,a5,a28780 <__udivmoddi4+0x1d4>
  a2868a:	010007b7          	lui	a5,0x1000
  a2868e:	2cf6ea63          	bltu	a3,a5,a28962 <__udivmoddi4+0x3b6>
  a28692:	0186d893          	srli	a7,a3,0x18
  a28696:	4861                	li	a6,24
  a28698:	0000c797          	auipc	a5,0xc
  a2869c:	9187a783          	lw	a5,-1768(a5) # a33fb0 <_GLOBAL_OFFSET_TABLE_+0x4>
  a286a0:	97c6                	add	a5,a5,a7
  a286a2:	0007c303          	lbu	t1,0(a5)
  a286a6:	02000e93          	li	t4,32
  a286aa:	9342                	add	t1,t1,a6
  a286ac:	406e8eb3          	sub	t4,t4,t1
  a286b0:	180e9563          	bnez	t4,a2883a <__udivmoddi4+0x28e>
  a286b4:	00b6e463          	bltu	a3,a1,a286bc <__udivmoddi4+0x110>
  a286b8:	2ec56363          	bltu	a0,a2,a2899e <__udivmoddi4+0x3f2>
  a286bc:	40c50633          	sub	a2,a0,a2
  a286c0:	00c53533          	sltu	a0,a0,a2
  a286c4:	8d95                	sub	a1,a1,a3
  a286c6:	40a58e33          	sub	t3,a1,a0
  a286ca:	4505                	li	a0,1
  a286cc:	4581                	li	a1,0
  a286ce:	d34d                	beqz	a4,a28670 <__udivmoddi4+0xc4>
  a286d0:	c310                	sw	a2,0(a4)
  a286d2:	01c72223          	sw	t3,4(a4)
  a286d6:	8082                	ret
  a286d8:	e601                	bnez	a2,a286e0 <__udivmoddi4+0x134>
  a286da:	4685                	li	a3,1
  a286dc:	02c6d833          	divu	a6,a3,a2
  a286e0:	66c1                	lui	a3,0x10
  a286e2:	0cd86063          	bltu	a6,a3,a287a2 <__udivmoddi4+0x1f6>
  a286e6:	010006b7          	lui	a3,0x1000
  a286ea:	26d86863          	bltu	a6,a3,a2895a <__udivmoddi4+0x3ae>
  a286ee:	01885613          	srli	a2,a6,0x18
  a286f2:	48e1                	li	a7,24
  a286f4:	0000c697          	auipc	a3,0xc
  a286f8:	8bc6a683          	lw	a3,-1860(a3) # a33fb0 <_GLOBAL_OFFSET_TABLE_+0x4>
  a286fc:	96b2                	add	a3,a3,a2
  a286fe:	2290                	lbu	a2,0(a3)
  a28700:	02000313          	li	t1,32
  a28704:	9646                	add	a2,a2,a7
  a28706:	40c30333          	sub	t1,t1,a2
  a2870a:	0a031863          	bnez	t1,a287ba <__udivmoddi4+0x20e>
  a2870e:	01081e93          	slli	t4,a6,0x10
  a28712:	410586b3          	sub	a3,a1,a6
  a28716:	01085f13          	srli	t5,a6,0x10
  a2871a:	010ede93          	srli	t4,t4,0x10
  a2871e:	4585                	li	a1,1
  a28720:	0107d893          	srli	a7,a5,0x10
  a28724:	03e6de33          	divu	t3,a3,t5
  a28728:	03e6f6b3          	remu	a3,a3,t5
  a2872c:	03de0633          	mul	a2,t3,t4
  a28730:	20d8a69b          	orshf	a3,a7,a3,sll,16
  a28734:	00c6fa63          	bgeu	a3,a2,a28748 <__udivmoddi4+0x19c>
  a28738:	96c2                	add	a3,a3,a6
  a2873a:	fffe0513          	addi	a0,t3,-1
  a2873e:	0106e463          	bltu	a3,a6,a28746 <__udivmoddi4+0x19a>
  a28742:	24c6eb63          	bltu	a3,a2,a28998 <__udivmoddi4+0x3ec>
  a28746:	8e2a                	mv	t3,a0
  a28748:	40c68633          	sub	a2,a3,a2
  a2874c:	03e65533          	divu	a0,a2,t5
  a28750:	01079693          	slli	a3,a5,0x10
  a28754:	82c1                	srli	a3,a3,0x10
  a28756:	03e67633          	remu	a2,a2,t5
  a2875a:	03d508b3          	mul	a7,a0,t4
  a2875e:	20c6a79b          	orshf	a5,a3,a2,sll,16
  a28762:	0117fa63          	bgeu	a5,a7,a28776 <__udivmoddi4+0x1ca>
  a28766:	97c2                	add	a5,a5,a6
  a28768:	fff50693          	addi	a3,a0,-1
  a2876c:	0107e463          	bltu	a5,a6,a28774 <__udivmoddi4+0x1c8>
  a28770:	2117eb63          	bltu	a5,a7,a28986 <__udivmoddi4+0x3da>
  a28774:	8536                	mv	a0,a3
  a28776:	411787b3          	sub	a5,a5,a7
  a2877a:	21c5251b          	orshf	a0,a0,t3,sll,16
  a2877e:	b5dd                	j	a28664 <__udivmoddi4+0xb8>
  a28780:	0ff00793          	li	a5,255
  a28784:	1ed7f363          	bgeu	a5,a3,a2896a <__udivmoddi4+0x3be>
  a28788:	0086d893          	srli	a7,a3,0x8
  a2878c:	4821                	li	a6,8
  a2878e:	b729                	j	a28698 <__udivmoddi4+0xec>
  a28790:	8332                	mv	t1,a2
  a28792:	0ff00693          	li	a3,255
  a28796:	e2c6fce3          	bgeu	a3,a2,a285ce <__udivmoddi4+0x22>
  a2879a:	00865313          	srli	t1,a2,0x8
  a2879e:	48a1                	li	a7,8
  a287a0:	b53d                	j	a285ce <__udivmoddi4+0x22>
  a287a2:	8642                	mv	a2,a6
  a287a4:	0ff00693          	li	a3,255
  a287a8:	f506f6e3          	bgeu	a3,a6,a286f4 <__udivmoddi4+0x148>
  a287ac:	00885613          	srli	a2,a6,0x8
  a287b0:	48a1                	li	a7,8
  a287b2:	b789                	j	a286f4 <__udivmoddi4+0x148>
  a287b4:	4581                	li	a1,0
  a287b6:	4501                	li	a0,0
  a287b8:	8082                	ret
  a287ba:	00681833          	sll	a6,a6,t1
  a287be:	00c5d8b3          	srl	a7,a1,a2
  a287c2:	01085f13          	srli	t5,a6,0x10
  a287c6:	03e8dfb3          	divu	t6,a7,t5
  a287ca:	01081e93          	slli	t4,a6,0x10
  a287ce:	006595b3          	sll	a1,a1,t1
  a287d2:	00c55633          	srl	a2,a0,a2
  a287d6:	010ede93          	srli	t4,t4,0x10
  a287da:	8e4d                	or	a2,a2,a1
  a287dc:	01065e13          	srli	t3,a2,0x10
  a287e0:	006517b3          	sll	a5,a0,t1
  a287e4:	03e8f8b3          	remu	a7,a7,t5
  a287e8:	03fe85b3          	mul	a1,t4,t6
  a287ec:	211e251b          	orshf	a0,t3,a7,sll,16
  a287f0:	00b57b63          	bgeu	a0,a1,a28806 <__udivmoddi4+0x25a>
  a287f4:	9542                	add	a0,a0,a6
  a287f6:	ffff8693          	addi	a3,t6,-1
  a287fa:	19056463          	bltu	a0,a6,a28982 <__udivmoddi4+0x3d6>
  a287fe:	18b57263          	bgeu	a0,a1,a28982 <__udivmoddi4+0x3d6>
  a28802:	1ff9                	addi	t6,t6,-2
  a28804:	9542                	add	a0,a0,a6
  a28806:	8d0d                	sub	a0,a0,a1
  a28808:	03e558b3          	divu	a7,a0,t5
  a2880c:	9e21                	uxth	a2
  a2880e:	03e57533          	remu	a0,a0,t5
  a28812:	031e86b3          	mul	a3,t4,a7
  a28816:	20a6259b          	orshf	a1,a2,a0,sll,16
  a2881a:	00d5fb63          	bgeu	a1,a3,a28830 <__udivmoddi4+0x284>
  a2881e:	95c2                	add	a1,a1,a6
  a28820:	fff88613          	addi	a2,a7,-1
  a28824:	1505eb63          	bltu	a1,a6,a2897a <__udivmoddi4+0x3ce>
  a28828:	14d5f963          	bgeu	a1,a3,a2897a <__udivmoddi4+0x3ce>
  a2882c:	18f9                	addi	a7,a7,-2
  a2882e:	95c2                	add	a1,a1,a6
  a28830:	40d586b3          	sub	a3,a1,a3
  a28834:	21f8a59b          	orshf	a1,a7,t6,sll,16
  a28838:	b5e5                	j	a28720 <__udivmoddi4+0x174>
  a2883a:	00665833          	srl	a6,a2,t1
  a2883e:	01d696b3          	sll	a3,a3,t4
  a28842:	00d866b3          	or	a3,a6,a3
  a28846:	0065d7b3          	srl	a5,a1,t1
  a2884a:	0106de13          	srli	t3,a3,0x10
  a2884e:	03c7dfb3          	divu	t6,a5,t3
  a28852:	01069893          	slli	a7,a3,0x10
  a28856:	0108d893          	srli	a7,a7,0x10
  a2885a:	00655833          	srl	a6,a0,t1
  a2885e:	01d51f33          	sll	t5,a0,t4
  a28862:	01d595b3          	sll	a1,a1,t4
  a28866:	00b865b3          	or	a1,a6,a1
  a2886a:	0105d813          	srli	a6,a1,0x10
  a2886e:	01d61633          	sll	a2,a2,t4
  a28872:	03c7f7b3          	remu	a5,a5,t3
  a28876:	03f88533          	mul	a0,a7,t6
  a2887a:	20f8279b          	orshf	a5,a6,a5,sll,16
  a2887e:	00a7fb63          	bgeu	a5,a0,a28894 <__udivmoddi4+0x2e8>
  a28882:	97b6                	add	a5,a5,a3
  a28884:	ffff8813          	addi	a6,t6,-1
  a28888:	0ed7eb63          	bltu	a5,a3,a2897e <__udivmoddi4+0x3d2>
  a2888c:	0ea7f963          	bgeu	a5,a0,a2897e <__udivmoddi4+0x3d2>
  a28890:	1ff9                	addi	t6,t6,-2
  a28892:	97b6                	add	a5,a5,a3
  a28894:	8f89                	sub	a5,a5,a0
  a28896:	03c7d533          	divu	a0,a5,t3
  a2889a:	9da1                	uxth	a1
  a2889c:	03c7f7b3          	remu	a5,a5,t3
  a288a0:	02a888b3          	mul	a7,a7,a0
  a288a4:	20f5a59b          	orshf	a1,a1,a5,sll,16
  a288a8:	0115fb63          	bgeu	a1,a7,a288be <__udivmoddi4+0x312>
  a288ac:	95b6                	add	a1,a1,a3
  a288ae:	fff50793          	addi	a5,a0,-1
  a288b2:	0cd5e263          	bltu	a1,a3,a28976 <__udivmoddi4+0x3ca>
  a288b6:	0d15f063          	bgeu	a1,a7,a28976 <__udivmoddi4+0x3ca>
  a288ba:	1579                	addi	a0,a0,-2
  a288bc:	95b6                	add	a1,a1,a3
  a288be:	63c1                	lui	t2,0x10
  a288c0:	21f5251b          	orshf	a0,a0,t6,sll,16
  a288c4:	fff38793          	addi	a5,t2,-1 # ffff <g_intheap_size+0x3>
  a288c8:	00f57833          	and	a6,a0,a5
  a288cc:	01055e13          	srli	t3,a0,0x10
  a288d0:	8ff1                	and	a5,a5,a2
  a288d2:	01065f93          	srli	t6,a2,0x10
  a288d6:	02fe02b3          	mul	t0,t3,a5
  a288da:	411588b3          	sub	a7,a1,a7
  a288de:	03f805b3          	mul	a1,a6,t6
  a288e2:	02f80833          	mul	a6,a6,a5
  a288e6:	9596                	add	a1,a1,t0
  a288e8:	6105859b          	addshf	a1,a1,a6,srl,16
  a288ec:	03fe0e33          	mul	t3,t3,t6
  a288f0:	0055f363          	bgeu	a1,t0,a288f6 <__udivmoddi4+0x34a>
  a288f4:	9e1e                	add	t3,t3,t2
  a288f6:	67c1                	lui	a5,0x10
  a288f8:	17fd                	addi	a5,a5,-1 # ffff <g_intheap_size+0x3>
  a288fa:	00f5ffb3          	and	t6,a1,a5
  a288fe:	00f877b3          	and	a5,a6,a5
  a28902:	60be081b          	addshf	a6,t3,a1,srl,16
  a28906:	21f7879b          	addshf	a5,a5,t6,sll,16
  a2890a:	0308ed63          	bltu	a7,a6,a28944 <__udivmoddi4+0x398>
  a2890e:	03088963          	beq	a7,a6,a28940 <__udivmoddi4+0x394>
  a28912:	4581                	li	a1,0
  a28914:	d4070ee3          	beqz	a4,a28670 <__udivmoddi4+0xc4>
  a28918:	40ff07b3          	sub	a5,t5,a5
  a2891c:	00ff3f33          	sltu	t5,t5,a5
  a28920:	410888b3          	sub	a7,a7,a6
  a28924:	41e888b3          	sub	a7,a7,t5
  a28928:	00689333          	sll	t1,a7,t1
  a2892c:	01d7d7b3          	srl	a5,a5,t4
  a28930:	00f367b3          	or	a5,t1,a5
  a28934:	01d8d8b3          	srl	a7,a7,t4
  a28938:	c31c                	sw	a5,0(a4)
  a2893a:	01172223          	sw	a7,4(a4)
  a2893e:	8082                	ret
  a28940:	fcff79e3          	bgeu	t5,a5,a28912 <__udivmoddi4+0x366>
  a28944:	40c78633          	sub	a2,a5,a2
  a28948:	00c7b7b3          	sltu	a5,a5,a2
  a2894c:	40d80833          	sub	a6,a6,a3
  a28950:	40f80833          	sub	a6,a6,a5
  a28954:	157d                	addi	a0,a0,-1
  a28956:	87b2                	mv	a5,a2
  a28958:	bf6d                	j	a28912 <__udivmoddi4+0x366>
  a2895a:	01085613          	srli	a2,a6,0x10
  a2895e:	48c1                	li	a7,16
  a28960:	bb51                	j	a286f4 <__udivmoddi4+0x148>
  a28962:	0106d893          	srli	a7,a3,0x10
  a28966:	4841                	li	a6,16
  a28968:	bb05                	j	a28698 <__udivmoddi4+0xec>
  a2896a:	4801                	li	a6,0
  a2896c:	b335                	j	a28698 <__udivmoddi4+0xec>
  a2896e:	01065313          	srli	t1,a2,0x10
  a28972:	48c1                	li	a7,16
  a28974:	b9a9                	j	a285ce <__udivmoddi4+0x22>
  a28976:	853e                	mv	a0,a5
  a28978:	b799                	j	a288be <__udivmoddi4+0x312>
  a2897a:	88b2                	mv	a7,a2
  a2897c:	bd55                	j	a28830 <__udivmoddi4+0x284>
  a2897e:	8fc2                	mv	t6,a6
  a28980:	bf11                	j	a28894 <__udivmoddi4+0x2e8>
  a28982:	8fb6                	mv	t6,a3
  a28984:	b549                	j	a28806 <__udivmoddi4+0x25a>
  a28986:	1579                	addi	a0,a0,-2
  a28988:	97c2                	add	a5,a5,a6
  a2898a:	b3f5                	j	a28776 <__udivmoddi4+0x1ca>
  a2898c:	1579                	addi	a0,a0,-2
  a2898e:	97c2                	add	a5,a5,a6
  a28990:	b1f1                	j	a2865c <__udivmoddi4+0xb0>
  a28992:	1f79                	addi	t5,t5,-2
  a28994:	96c2                	add	a3,a3,a6
  a28996:	b961                	j	a2862e <__udivmoddi4+0x82>
  a28998:	1e79                	addi	t3,t3,-2
  a2899a:	96c2                	add	a3,a3,a6
  a2899c:	b375                	j	a28748 <__udivmoddi4+0x19c>
  a2899e:	862a                	mv	a2,a0
  a289a0:	4501                	li	a0,0
  a289a2:	b32d                	j	a286cc <__udivmoddi4+0x120>

00a289a4 <memset>:
  a289a4:	ca59                	beqz	a2,a28a3a <memset+0x96>
  a289a6:	0ff5f793          	andi	a5,a1,255
  a289aa:	a11c                	sb	a5,0(a0)
  a289ac:	00c50733          	add	a4,a0,a2
  a289b0:	fef70fa3          	sb	a5,-1(a4)
  a289b4:	032661bb          	bltui	a2,3,a28a3a <memset+0x96>
  a289b8:	b11c                	sb	a5,1(a0)
  a289ba:	a13c                	sb	a5,2(a0)
  a289bc:	fef70f23          	sb	a5,-2(a4)
  a289c0:	fef70ea3          	sb	a5,-3(a4)
  a289c4:	07166dbb          	bltui	a2,7,a28a3a <memset+0x96>
  a289c8:	b13c                	sb	a5,3(a0)
  a289ca:	fef70e23          	sb	a5,-4(a4)
  a289ce:	46a1                	li	a3,8
  a289d0:	06c6f563          	bgeu	a3,a2,a28a3a <memset+0x96>
  a289d4:	40a007b3          	neg	a5,a0
  a289d8:	8b8d                	andi	a5,a5,3
  a289da:	00f50733          	add	a4,a0,a5
  a289de:	8e1d                	sub	a2,a2,a5
  a289e0:	0ff5f593          	andi	a1,a1,255
  a289e4:	0101 0101 079f      	l.li	a5,0x1010101
  a289ea:	02f585b3          	mul	a1,a1,a5
  a289ee:	9a71                	andi	a2,a2,-4
  a289f0:	00c707b3          	add	a5,a4,a2
  a289f4:	c30c                	sw	a1,0(a4)
  a289f6:	feb7ae23          	sw	a1,-4(a5)
  a289fa:	04c6f063          	bgeu	a3,a2,a28a3a <memset+0x96>
  a289fe:	c34c                	sw	a1,4(a4)
  a28a00:	c70c                	sw	a1,8(a4)
  a28a02:	feb7aa23          	sw	a1,-12(a5)
  a28a06:	feb7ac23          	sw	a1,-8(a5)
  a28a0a:	19066c3b          	bltui	a2,25,a28a3a <memset+0x96>
  a28a0e:	c74c                	sw	a1,12(a4)
  a28a10:	cb0c                	sw	a1,16(a4)
  a28a12:	cb4c                	sw	a1,20(a4)
  a28a14:	cf0c                	sw	a1,24(a4)
  a28a16:	feb7a223          	sw	a1,-28(a5)
  a28a1a:	feb7a423          	sw	a1,-24(a5)
  a28a1e:	feb7a623          	sw	a1,-20(a5)
  a28a22:	feb7a823          	sw	a1,-16(a5)
  a28a26:	00477793          	andi	a5,a4,4
  a28a2a:	07e1                	addi	a5,a5,24
  a28a2c:	97ba                	add	a5,a5,a4
  a28a2e:	46fd                	li	a3,31
  a28a30:	9732                	add	a4,a4,a2
  a28a32:	40f70633          	sub	a2,a4,a5
  a28a36:	00c6e363          	bltu	a3,a2,a28a3c <memset+0x98>
  a28a3a:	8082                	ret
  a28a3c:	c38c                	sw	a1,0(a5)
  a28a3e:	c3cc                	sw	a1,4(a5)
  a28a40:	c78c                	sw	a1,8(a5)
  a28a42:	c7cc                	sw	a1,12(a5)
  a28a44:	cb8c                	sw	a1,16(a5)
  a28a46:	cbcc                	sw	a1,20(a5)
  a28a48:	cf8c                	sw	a1,24(a5)
  a28a4a:	cfcc                	sw	a1,28(a5)
  a28a4c:	02078793          	addi	a5,a5,32
  a28a50:	b7cd                	j	a28a32 <memset+0x8e>

00a28a52 <memcpy>:
  a28a52:	87aa                	mv	a5,a0
  a28a54:	0035f713          	andi	a4,a1,3
  a28a58:	c319                	beqz	a4,a28a5e <memcpy+0xc>
  a28a5a:	16061963          	bnez	a2,a28bcc <memcpy+0x17a>
  a28a5e:	0037f813          	andi	a6,a5,3
  a28a62:	473d                	li	a4,15
  a28a64:	18080e63          	beqz	a6,a28c00 <memcpy+0x1ae>
  a28a68:	20166abb          	bltui	a2,32,a28ad2 <memcpy+0x80>
  a28a6c:	2194                	lbu	a3,0(a1)
  a28a6e:	4198                	lw	a4,0(a1)
  a28a70:	027807bb          	beqi	a6,2,a28c4e <memcpy+0x1fc>
  a28a74:	488d                	li	a7,3
  a28a76:	23180563          	beq	a6,a7,a28ca0 <memcpy+0x24e>
  a28a7a:	a394                	sb	a3,0(a5)
  a28a7c:	3194                	lbu	a3,1(a1)
  a28a7e:	1675                	addi	a2,a2,-3
  a28a80:	058d                	addi	a1,a1,3
  a28a82:	b394                	sb	a3,1(a5)
  a28a84:	fff5c683          	lbu	a3,-1(a1)
  a28a88:	078d                	addi	a5,a5,3
  a28a8a:	4e41                	li	t3,16
  a28a8c:	fed78fa3          	sb	a3,-1(a5)
  a28a90:	0015a303          	lw	t1,1(a1)
  a28a94:	0055a883          	lw	a7,5(a1)
  a28a98:	1641                	addi	a2,a2,-16
  a28a9a:	00831813          	slli	a6,t1,0x8
  a28a9e:	70e8271b          	orshf	a4,a6,a4,srl,24
  a28aa2:	0095a803          	lw	a6,9(a1)
  a28aa6:	c398                	sw	a4,0(a5)
  a28aa8:	00889693          	slli	a3,a7,0x8
  a28aac:	00881713          	slli	a4,a6,0x8
  a28ab0:	7117271b          	orshf	a4,a4,a7,srl,24
  a28ab4:	c798                	sw	a4,8(a5)
  a28ab6:	00d5a703          	lw	a4,13(a1)
  a28aba:	7066a69b          	orshf	a3,a3,t1,srl,24
  a28abe:	c3d4                	sw	a3,4(a5)
  a28ac0:	00871693          	slli	a3,a4,0x8
  a28ac4:	7106a69b          	orshf	a3,a3,a6,srl,24
  a28ac8:	c7d4                	sw	a3,12(a5)
  a28aca:	05c1                	addi	a1,a1,16
  a28acc:	07c1                	addi	a5,a5,16
  a28ace:	fcce61e3          	bltu	t3,a2,a28a90 <memcpy+0x3e>
  a28ad2:	01067713          	andi	a4,a2,16
  a28ad6:	c351                	beqz	a4,a28b5a <memcpy+0x108>
  a28ad8:	2198                	lbu	a4,0(a1)
  a28ada:	07c1                	addi	a5,a5,16
  a28adc:	05c1                	addi	a1,a1,16
  a28ade:	fee78823          	sb	a4,-16(a5)
  a28ae2:	ff15c703          	lbu	a4,-15(a1)
  a28ae6:	fee788a3          	sb	a4,-15(a5)
  a28aea:	ff25c703          	lbu	a4,-14(a1)
  a28aee:	fee78923          	sb	a4,-14(a5)
  a28af2:	ff35c703          	lbu	a4,-13(a1)
  a28af6:	fee789a3          	sb	a4,-13(a5)
  a28afa:	ff45c703          	lbu	a4,-12(a1)
  a28afe:	fee78a23          	sb	a4,-12(a5)
  a28b02:	ff55c703          	lbu	a4,-11(a1)
  a28b06:	fee78aa3          	sb	a4,-11(a5)
  a28b0a:	ff65c703          	lbu	a4,-10(a1)
  a28b0e:	fee78b23          	sb	a4,-10(a5)
  a28b12:	ff75c703          	lbu	a4,-9(a1)
  a28b16:	fee78ba3          	sb	a4,-9(a5)
  a28b1a:	ff85c703          	lbu	a4,-8(a1)
  a28b1e:	fee78c23          	sb	a4,-8(a5)
  a28b22:	ff95c703          	lbu	a4,-7(a1)
  a28b26:	fee78ca3          	sb	a4,-7(a5)
  a28b2a:	ffa5c703          	lbu	a4,-6(a1)
  a28b2e:	fee78d23          	sb	a4,-6(a5)
  a28b32:	ffb5c703          	lbu	a4,-5(a1)
  a28b36:	fee78da3          	sb	a4,-5(a5)
  a28b3a:	ffc5c703          	lbu	a4,-4(a1)
  a28b3e:	fee78e23          	sb	a4,-4(a5)
  a28b42:	ffd5c703          	lbu	a4,-3(a1)
  a28b46:	fee78ea3          	sb	a4,-3(a5)
  a28b4a:	ffe5c703          	lbu	a4,-2(a1)
  a28b4e:	fee78f23          	sb	a4,-2(a5)
  a28b52:	fff5c703          	lbu	a4,-1(a1)
  a28b56:	fee78fa3          	sb	a4,-1(a5)
  a28b5a:	00867713          	andi	a4,a2,8
  a28b5e:	c331                	beqz	a4,a28ba2 <memcpy+0x150>
  a28b60:	2198                	lbu	a4,0(a1)
  a28b62:	07a1                	addi	a5,a5,8
  a28b64:	05a1                	addi	a1,a1,8
  a28b66:	fee78c23          	sb	a4,-8(a5)
  a28b6a:	ff95c703          	lbu	a4,-7(a1)
  a28b6e:	fee78ca3          	sb	a4,-7(a5)
  a28b72:	ffa5c703          	lbu	a4,-6(a1)
  a28b76:	fee78d23          	sb	a4,-6(a5)
  a28b7a:	ffb5c703          	lbu	a4,-5(a1)
  a28b7e:	fee78da3          	sb	a4,-5(a5)
  a28b82:	ffc5c703          	lbu	a4,-4(a1)
  a28b86:	fee78e23          	sb	a4,-4(a5)
  a28b8a:	ffd5c703          	lbu	a4,-3(a1)
  a28b8e:	fee78ea3          	sb	a4,-3(a5)
  a28b92:	ffe5c703          	lbu	a4,-2(a1)
  a28b96:	fee78f23          	sb	a4,-2(a5)
  a28b9a:	fff5c703          	lbu	a4,-1(a1)
  a28b9e:	fee78fa3          	sb	a4,-1(a5)
  a28ba2:	00467713          	andi	a4,a2,4
  a28ba6:	c359                	beqz	a4,a28c2c <memcpy+0x1da>
  a28ba8:	2198                	lbu	a4,0(a1)
  a28baa:	0791                	addi	a5,a5,4
  a28bac:	0591                	addi	a1,a1,4
  a28bae:	fee78e23          	sb	a4,-4(a5)
  a28bb2:	ffd5c703          	lbu	a4,-3(a1)
  a28bb6:	fee78ea3          	sb	a4,-3(a5)
  a28bba:	ffe5c703          	lbu	a4,-2(a1)
  a28bbe:	fee78f23          	sb	a4,-2(a5)
  a28bc2:	fff5c703          	lbu	a4,-1(a1)
  a28bc6:	fee78fa3          	sb	a4,-1(a5)
  a28bca:	a08d                	j	a28c2c <memcpy+0x1da>
  a28bcc:	0585                	addi	a1,a1,1
  a28bce:	fff5c703          	lbu	a4,-1(a1)
  a28bd2:	0785                	addi	a5,a5,1
  a28bd4:	167d                	addi	a2,a2,-1
  a28bd6:	fee78fa3          	sb	a4,-1(a5)
  a28bda:	bdad                	j	a28a54 <memcpy+0x2>
  a28bdc:	4194                	lw	a3,0(a1)
  a28bde:	07c1                	addi	a5,a5,16
  a28be0:	05c1                	addi	a1,a1,16
  a28be2:	fed7a823          	sw	a3,-16(a5)
  a28be6:	ff45a683          	lw	a3,-12(a1)
  a28bea:	1641                	addi	a2,a2,-16
  a28bec:	fed7aa23          	sw	a3,-12(a5)
  a28bf0:	ff85a683          	lw	a3,-8(a1)
  a28bf4:	fed7ac23          	sw	a3,-8(a5)
  a28bf8:	ffc5a683          	lw	a3,-4(a1)
  a28bfc:	fed7ae23          	sw	a3,-4(a5)
  a28c00:	fcc76ee3          	bltu	a4,a2,a28bdc <memcpy+0x18a>
  a28c04:	00867713          	andi	a4,a2,8
  a28c08:	cb11                	beqz	a4,a28c1c <memcpy+0x1ca>
  a28c0a:	4198                	lw	a4,0(a1)
  a28c0c:	07a1                	addi	a5,a5,8
  a28c0e:	05a1                	addi	a1,a1,8
  a28c10:	fee7ac23          	sw	a4,-8(a5)
  a28c14:	ffc5a703          	lw	a4,-4(a1)
  a28c18:	fee7ae23          	sw	a4,-4(a5)
  a28c1c:	00467713          	andi	a4,a2,4
  a28c20:	c711                	beqz	a4,a28c2c <memcpy+0x1da>
  a28c22:	4198                	lw	a4,0(a1)
  a28c24:	0791                	addi	a5,a5,4
  a28c26:	0591                	addi	a1,a1,4
  a28c28:	fee7ae23          	sw	a4,-4(a5)
  a28c2c:	00267713          	andi	a4,a2,2
  a28c30:	cb11                	beqz	a4,a28c44 <memcpy+0x1f2>
  a28c32:	2198                	lbu	a4,0(a1)
  a28c34:	0789                	addi	a5,a5,2
  a28c36:	0589                	addi	a1,a1,2
  a28c38:	fee78f23          	sb	a4,-2(a5)
  a28c3c:	fff5c703          	lbu	a4,-1(a1)
  a28c40:	fee78fa3          	sb	a4,-1(a5)
  a28c44:	8a05                	andi	a2,a2,1
  a28c46:	c219                	beqz	a2,a28c4c <memcpy+0x1fa>
  a28c48:	2198                	lbu	a4,0(a1)
  a28c4a:	a398                	sb	a4,0(a5)
  a28c4c:	8082                	ret
  a28c4e:	a394                	sb	a3,0(a5)
  a28c50:	3194                	lbu	a3,1(a1)
  a28c52:	1679                	addi	a2,a2,-2
  a28c54:	0589                	addi	a1,a1,2
  a28c56:	b394                	sb	a3,1(a5)
  a28c58:	4e45                	li	t3,17
  a28c5a:	0789                	addi	a5,a5,2
  a28c5c:	0025a303          	lw	t1,2(a1)
  a28c60:	0065a883          	lw	a7,6(a1)
  a28c64:	1641                	addi	a2,a2,-16
  a28c66:	01031813          	slli	a6,t1,0x10
  a28c6a:	60e8271b          	orshf	a4,a6,a4,srl,16
  a28c6e:	00a5a803          	lw	a6,10(a1)
  a28c72:	c398                	sw	a4,0(a5)
  a28c74:	01089693          	slli	a3,a7,0x10
  a28c78:	01081713          	slli	a4,a6,0x10
  a28c7c:	6117271b          	orshf	a4,a4,a7,srl,16
  a28c80:	c798                	sw	a4,8(a5)
  a28c82:	00e5a703          	lw	a4,14(a1)
  a28c86:	6066a69b          	orshf	a3,a3,t1,srl,16
  a28c8a:	c3d4                	sw	a3,4(a5)
  a28c8c:	01071693          	slli	a3,a4,0x10
  a28c90:	6106a69b          	orshf	a3,a3,a6,srl,16
  a28c94:	c7d4                	sw	a3,12(a5)
  a28c96:	05c1                	addi	a1,a1,16
  a28c98:	07c1                	addi	a5,a5,16
  a28c9a:	fcce61e3          	bltu	t3,a2,a28c5c <memcpy+0x20a>
  a28c9e:	bd15                	j	a28ad2 <memcpy+0x80>
  a28ca0:	a394                	sb	a3,0(a5)
  a28ca2:	0585                	addi	a1,a1,1
  a28ca4:	167d                	addi	a2,a2,-1
  a28ca6:	0785                	addi	a5,a5,1
  a28ca8:	4e49                	li	t3,18
  a28caa:	0035a303          	lw	t1,3(a1)
  a28cae:	0075a883          	lw	a7,7(a1)
  a28cb2:	1641                	addi	a2,a2,-16
  a28cb4:	01831813          	slli	a6,t1,0x18
  a28cb8:	50e8271b          	orshf	a4,a6,a4,srl,8
  a28cbc:	00b5a803          	lw	a6,11(a1)
  a28cc0:	c398                	sw	a4,0(a5)
  a28cc2:	01889693          	slli	a3,a7,0x18
  a28cc6:	01881713          	slli	a4,a6,0x18
  a28cca:	5117271b          	orshf	a4,a4,a7,srl,8
  a28cce:	c798                	sw	a4,8(a5)
  a28cd0:	00f5a703          	lw	a4,15(a1)
  a28cd4:	5066a69b          	orshf	a3,a3,t1,srl,8
  a28cd8:	c3d4                	sw	a3,4(a5)
  a28cda:	01871693          	slli	a3,a4,0x18
  a28cde:	5106a69b          	orshf	a3,a3,a6,srl,8
  a28ce2:	c7d4                	sw	a3,12(a5)
  a28ce4:	05c1                	addi	a1,a1,16
  a28ce6:	07c1                	addi	a5,a5,16
  a28ce8:	fcce61e3          	bltu	t3,a2,a28caa <memcpy+0x258>
  a28cec:	b3dd                	j	a28ad2 <memcpy+0x80>

00a28cee <memcmp>:
  a28cee:	962a                	add	a2,a2,a0
  a28cf0:	00c50c63          	beq	a0,a2,a28d08 <memcmp+0x1a>
  a28cf4:	211c                	lbu	a5,0(a0)
  a28cf6:	2198                	lbu	a4,0(a1)
  a28cf8:	00e78563          	beq	a5,a4,a28d02 <memcmp+0x14>
  a28cfc:	40e78533          	sub	a0,a5,a4
  a28d00:	8082                	ret
  a28d02:	0505                	addi	a0,a0,1
  a28d04:	0585                	addi	a1,a1,1
  a28d06:	b7ed                	j	a28cf0 <memcmp+0x2>
  a28d08:	4501                	li	a0,0
  a28d0a:	8082                	ret

00a28d0c <strlen>:
  a28d0c:	87aa                	mv	a5,a0
  a28d0e:	0037f713          	andi	a4,a5,3
  a28d12:	e31d                	bnez	a4,a28d38 <strlen+0x2c>
  a28d14:	fefe feff 059f      	l.li	a1,0xfefefeff
  a28d1a:	8080 8080 061f      	l.li	a2,0x80808080
  a28d20:	4394                	lw	a3,0(a5)
  a28d22:	00b68733          	add	a4,a3,a1
  a28d26:	fff6c693          	not	a3,a3
  a28d2a:	8f75                	and	a4,a4,a3
  a28d2c:	8f71                	and	a4,a4,a2
  a28d2e:	cf01                	beqz	a4,a28d46 <strlen+0x3a>
  a28d30:	2398                	lbu	a4,0(a5)
  a28d32:	c709                	beqz	a4,a28d3c <strlen+0x30>
  a28d34:	0785                	addi	a5,a5,1
  a28d36:	bfed                	j	a28d30 <strlen+0x24>
  a28d38:	2398                	lbu	a4,0(a5)
  a28d3a:	e701                	bnez	a4,a28d42 <strlen+0x36>
  a28d3c:	40a78533          	sub	a0,a5,a0
  a28d40:	8082                	ret
  a28d42:	0785                	addi	a5,a5,1
  a28d44:	b7e9                	j	a28d0e <strlen+0x2>
  a28d46:	0791                	addi	a5,a5,4
  a28d48:	bfe1                	j	a28d20 <strlen+0x14>

00a28d4a <memmove>:
  a28d4a:	882a                	mv	a6,a0
  a28d4c:	872e                	mv	a4,a1
  a28d4e:	87b2                	mv	a5,a2
  a28d50:	02b50f63          	beq	a0,a1,a28d8e <memmove+0x44>
  a28d54:	56f9                	li	a3,-2
  a28d56:	02d606b3          	mul	a3,a2,a3
  a28d5a:	40a588b3          	sub	a7,a1,a0
  a28d5e:	40c888b3          	sub	a7,a7,a2
  a28d62:	0116e363          	bltu	a3,a7,a28d68 <memmove+0x1e>
  a28d66:	b1f5                	j	a28a52 <memcpy>
  a28d68:	00a5c6b3          	xor	a3,a1,a0
  a28d6c:	8a8d                	andi	a3,a3,3
  a28d6e:	04b57863          	bgeu	a0,a1,a28dbe <memmove+0x74>
  a28d72:	c6a1                	beqz	a3,a28dba <memmove+0x70>
  a28d74:	86aa                	mv	a3,a0
  a28d76:	97b6                	add	a5,a5,a3
  a28d78:	00f68a63          	beq	a3,a5,a28d8c <memmove+0x42>
  a28d7c:	0705                	addi	a4,a4,1
  a28d7e:	fff74603          	lbu	a2,-1(a4)
  a28d82:	0685                	addi	a3,a3,1
  a28d84:	fec68fa3          	sb	a2,-1(a3)
  a28d88:	bfc5                	j	a28d78 <memmove+0x2e>
  a28d8a:	e781                	bnez	a5,a28d92 <memmove+0x48>
  a28d8c:	8742                	mv	a4,a6
  a28d8e:	853a                	mv	a0,a4
  a28d90:	8082                	ret
  a28d92:	0705                	addi	a4,a4,1
  a28d94:	fff74603          	lbu	a2,-1(a4)
  a28d98:	0685                	addi	a3,a3,1
  a28d9a:	17fd                	addi	a5,a5,-1
  a28d9c:	fec68fa3          	sb	a2,-1(a3)
  a28da0:	0036f613          	andi	a2,a3,3
  a28da4:	f27d                	bnez	a2,a28d8a <memmove+0x40>
  a28da6:	460d                	li	a2,3
  a28da8:	fcf677e3          	bgeu	a2,a5,a28d76 <memmove+0x2c>
  a28dac:	430c                	lw	a1,0(a4)
  a28dae:	17f1                	addi	a5,a5,-4
  a28db0:	0691                	addi	a3,a3,4
  a28db2:	feb6ae23          	sw	a1,-4(a3)
  a28db6:	0711                	addi	a4,a4,4
  a28db8:	bfc5                	j	a28da8 <memmove+0x5e>
  a28dba:	86aa                	mv	a3,a0
  a28dbc:	b7d5                	j	a28da0 <memmove+0x56>
  a28dbe:	ee81                	bnez	a3,a28dd6 <memmove+0x8c>
  a28dc0:	962a                	add	a2,a2,a0
  a28dc2:	00f586b3          	add	a3,a1,a5
  a28dc6:	00367593          	andi	a1,a2,3
  a28dca:	40e687b3          	sub	a5,a3,a4
  a28dce:	ed89                	bnez	a1,a28de8 <memmove+0x9e>
  a28dd0:	468d                	li	a3,3
  a28dd2:	02f6e363          	bltu	a3,a5,a28df8 <memmove+0xae>
  a28dd6:	dbdd                	beqz	a5,a28d8c <memmove+0x42>
  a28dd8:	17fd                	addi	a5,a5,-1
  a28dda:	00f706b3          	add	a3,a4,a5
  a28dde:	2290                	lbu	a2,0(a3)
  a28de0:	00f806b3          	add	a3,a6,a5
  a28de4:	a290                	sb	a2,0(a3)
  a28de6:	bfc5                	j	a28dd6 <memmove+0x8c>
  a28de8:	167d                	addi	a2,a2,-1
  a28dea:	fad701e3          	beq	a4,a3,a28d8c <memmove+0x42>
  a28dee:	fff6c783          	lbu	a5,-1(a3)
  a28df2:	16fd                	addi	a3,a3,-1
  a28df4:	a21c                	sb	a5,0(a2)
  a28df6:	bfc1                	j	a28dc6 <memmove+0x7c>
  a28df8:	17f1                	addi	a5,a5,-4
  a28dfa:	00f70633          	add	a2,a4,a5
  a28dfe:	420c                	lw	a1,0(a2)
  a28e00:	00f80633          	add	a2,a6,a5
  a28e04:	c20c                	sw	a1,0(a2)
  a28e06:	b7f1                	j	a28dd2 <memmove+0x88>

00a28e08 <reset>:
  a28e08:	8018                	push	{ra},-16
  a28e0a:	5c1030ef          	jal	ra,a2cbca <update_reset_count>
  a28e0e:	400027b7          	lui	a5,0x40002
  a28e12:	4711                	li	a4,4
  a28e14:	10e79823          	sh	a4,272(a5) # 40002110 <_gp_+0x3f5cd954>
  a28e18:	a001                	j	a28e18 <reset+0x10>

00a28e1a <boot_fail>:
  a28e1a:	a001                	j	a28e1a <boot_fail>

00a28e1c <boot_regist_flash_cmd>:
  a28e1c:	8018                	push	{ra},-16
  a28e1e:	862a                	mv	a2,a0
  a28e20:	46d1                	li	a3,20
  a28e22:	45d1                	li	a1,20
  a28e24:	00a0 5500 051f      	l.li	a0,0xa05500
  a28e2a:	347070ef          	jal	ra,a30970 <memcpy_s>
  a28e2e:	c501                	beqz	a0,a28e36 <boot_regist_flash_cmd+0x1a>
  a28e30:	80000537          	lui	a0,0x80000
  a28e34:	0511                	addi	a0,a0,4 # 80000004 <_gp_+0x7f5cb848>
  a28e36:	8014                	popret	{ra},16

00a28e38 <jump_to_execute_addr>:
  a28e38:	8018                	push	{ra},-16
  a28e3a:	9502                	jalr	a0
  a28e3c:	8010                	pop	{ra},16
  a28e3e:	bff1                	j	a28e1a <boot_fail>

00a28e40 <ws63_set_try_fix_cnt>:
  a28e40:	40000737          	lui	a4,0x40000
  a28e44:	471c                	lw	a5,8(a4)
  a28e46:	893d                	andi	a0,a0,15
  a28e48:	9bc1                	andi	a5,a5,-16
  a28e4a:	8fc9                	or	a5,a5,a0
  a28e4c:	c71c                	sw	a5,8(a4)
  a28e4e:	8082                	ret

00a28e50 <sfc_flash_erase>:
  a28e50:	ffe007b7          	lui	a5,0xffe00
  a28e54:	953e                	add	a0,a0,a5
  a28e56:	10d0306f          	j	a2c762 <uapi_sfc_reg_erase>

00a28e5a <sfc_flash_write>:
  a28e5a:	87b2                	mv	a5,a2
  a28e5c:	862e                	mv	a2,a1
  a28e5e:	85be                	mv	a1,a5
  a28e60:	0050306f          	j	a2c664 <uapi_sfc_reg_write>

00a28e64 <sfc_flash_read>:
  a28e64:	87b2                	mv	a5,a2
  a28e66:	862e                	mv	a2,a1
  a28e68:	85be                	mv	a1,a5
  a28e6a:	7260306f          	j	a2c590 <uapi_sfc_reg_read>

00a28e6e <sfc_flash_init>:
  a28e6e:	00a3 1d20 051f      	l.li	a0,0xa31d20
  a28e74:	6720306f          	j	a2c4e6 <uapi_sfc_init>

00a28e78 <start_fastboot>:
  a28e78:	8a58                	push	{ra,s0-s3},-192
  a28e7a:	40003737          	lui	a4,0x40003
  a28e7e:	ce02                	sw	zero,28(sp)
  a28e80:	d002                	sw	zero,32(sp)
  a28e82:	d202                	sw	zero,36(sp)
  a28e84:	40872783          	lw	a5,1032(a4) # 40003408 <_gp_+0x3f5cec4c>
  a28e88:	0387e793          	ori	a5,a5,56
  a28e8c:	40f72423          	sw	a5,1032(a4)
  a28e90:	2cd030ef          	jal	ra,a2c95c <boot_clock_adapt>
  a28e94:	451d                	li	a0,7
  a28e96:	03b010ef          	jal	ra,a2a6d0 <uapi_watchdog_init>
  a28e9a:	4501                	li	a0,0
  a28e9c:	087010ef          	jal	ra,a2a722 <uapi_watchdog_enable>
  a28ea0:	0001 c200 079f      	l.li	a5,0x1c200
  a28ea6:	d43e                	sw	a5,40(sp)
  a28ea8:	10800793          	li	a5,264
  a28eac:	d63e                	sw	a5,44(sp)
  a28eae:	0004 0102 079f      	l.li	a5,0x40102
  a28eb4:	d83e                	sw	a5,48(sp)
  a28eb6:	328010ef          	jal	ra,a2a1de <uapi_tcxo_init>
  a28eba:	4631                	li	a2,12
  a28ebc:	102c                	addi	a1,sp,40
  a28ebe:	850a                	mv	a0,sp
  a28ec0:	3e49                	jal	ra,a28a52 <memcpy>
  a28ec2:	4581                	li	a1,0
  a28ec4:	850a                	mv	a0,sp
  a28ec6:	475030ef          	jal	ra,a2cb3a <hiburn_uart_init>
  a28eca:	00a3 1d2c 051f      	l.li	a0,0xa31d2c
  a28ed0:	40b030ef          	jal	ra,a2cada <boot_msg0>
  a28ed4:	463040ef          	jal	ra,a2db36 <uapi_partition_init>
  a28ed8:	0f2030ef          	jal	ra,a2bfca <pmp_enable>
  a28edc:	21b030ef          	jal	ra,a2c8f6 <malloc_port_init>
  a28ee0:	00a3 1d48 051f      	l.li	a0,0xa31d48
  a28ee6:	3f5030ef          	jal	ra,a2cada <boot_msg0>
  a28eea:	00a2 8e6e 079f      	l.li	a5,0xa28e6e
  a28ef0:	da3e                	sw	a5,52(sp)
  a28ef2:	00a2 8e64 079f      	l.li	a5,0xa28e64
  a28ef8:	dc3e                	sw	a5,56(sp)
  a28efa:	00a2 8e5a 079f      	l.li	a5,0xa28e5a
  a28f00:	de3e                	sw	a5,60(sp)
  a28f02:	1848                	addi	a0,sp,52
  a28f04:	00a2 8e50 079f      	l.li	a5,0xa28e50
  a28f0a:	c0be                	sw	a5,64(sp)
  a28f0c:	c282                	sw	zero,68(sp)
  a28f0e:	3739                	jal	ra,a28e1c <boot_regist_flash_cmd>
  a28f10:	3fb9                	jal	ra,a28e6e <sfc_flash_init>
  a28f12:	18050863          	beqz	a0,a290a2 <start_fastboot+0x22a>
  a28f16:	85aa                	mv	a1,a0
  a28f18:	00a3 1d64 051f      	l.li	a0,0xa31d64
  a28f1e:	3cf030ef          	jal	ra,a2caec <boot_msg1>
  a28f22:	27f030ef          	jal	ra,a2c9a0 <switch_flash_clock_to_pll>
  a28f26:	2a7030ef          	jal	ra,a2c9cc <config_sfc_ctrl_ds>
  a28f2a:	3ca030ef          	jal	ra,a2c2f4 <sfc_port_fix_sr>
  a28f2e:	85aa                	mv	a1,a0
  a28f30:	c511                	beqz	a0,a28f3c <start_fastboot+0xc4>
  a28f32:	00a3 1d90 051f      	l.li	a0,0xa31d90
  a28f38:	3b5030ef          	jal	ra,a2caec <boot_msg1>
  a28f3c:	00a3 1da4 059f      	l.li	a1,0xa31da4
  a28f42:	00a3 1db0 051f      	l.li	a0,0xa31db0
  a28f48:	0fc030ef          	jal	ra,a2c044 <print_str>
  a28f4c:	191030ef          	jal	ra,a2c8dc <set_efuse_period>
  a28f50:	0b3010ef          	jal	ra,a2a802 <uapi_efuse_init>
  a28f54:	5b6040ef          	jal	ra,a2d50a <ws63_upg_init>
  a28f58:	102c                	addi	a1,sp,40
  a28f5a:	02100513          	li	a0,33
  a28f5e:	cc02                	sw	zero,24(sp)
  a28f60:	455040ef          	jal	ra,a2dbb4 <uapi_partition_get_info>
  a28f64:	e509                	bnez	a0,a28f6e <start_fastboot+0xf6>
  a28f66:	02814783          	lbu	a5,40(sp)
  a28f6a:	14078263          	beqz	a5,a290ae <start_fastboot+0x236>
  a28f6e:	0f000593          	li	a1,240
  a28f72:	00a3 1dcc 051f      	l.li	a0,0xa31dcc
  a28f78:	375030ef          	jal	ra,a2caec <boot_msg1>
  a28f7c:	086c                	addi	a1,sp,28
  a28f7e:	02000513          	li	a0,32
  a28f82:	433040ef          	jal	ra,a2dbb4 <uapi_partition_get_info>
  a28f86:	c519                	beqz	a0,a28f94 <start_fastboot+0x11c>
  a28f88:	00a3 1e80 051f      	l.li	a0,0xa31e80
  a28f8e:	34d030ef          	jal	ra,a2cada <boot_msg0>
  a28f92:	3d9d                	jal	ra,a28e08 <reset>
  a28f94:	5402                	lw	s0,32(sp)
  a28f96:	002007b7          	lui	a5,0x200
  a28f9a:	10078993          	addi	s3,a5,256 # 200100 <__heap_size+0x1e2b08>
  a28f9e:	99a2                	add	s3,s3,s0
  a28fa0:	da02                	sw	zero,52(sp)
  a28fa2:	dc02                	sw	zero,56(sp)
  a28fa4:	de02                	sw	zero,60(sp)
  a28fa6:	c082                	sw	zero,64(sp)
  a28fa8:	5912                	lw	s2,36(sp)
  a28faa:	0489a703          	lw	a4,72(s3)
  a28fae:	00f404b3          	add	s1,s0,a5
  a28fb2:	30078793          	addi	a5,a5,768
  a28fb6:	943e                	add	s0,s0,a5
  a28fb8:	3c78 96e1 079f      	l.li	a5,0x3c7896e1
  a28fbe:	9926                	add	s2,s2,s1
  a28fc0:	18f71163          	bne	a4,a5,a29142 <start_fastboot+0x2ca>
  a28fc4:	00a3 1eb4 051f      	l.li	a0,0xa31eb4
  a28fca:	311030ef          	jal	ra,a2cada <boot_msg0>
  a28fce:	00a2 8080 059f      	l.li	a1,0xa28080
  a28fd4:	8626                	mv	a2,s1
  a28fd6:	4519                	li	a0,6
  a28fd8:	29a1                	jal	ra,a29430 <verify_image_head>
  a28fda:	85aa                	mv	a1,a0
  a28fdc:	1e050d63          	beqz	a0,a291d6 <start_fastboot+0x35e>
  a28fe0:	00a3 1fc4 051f      	l.li	a0,0xa31fc4
  a28fe6:	307030ef          	jal	ra,a2caec <boot_msg1>
  a28fea:	400007b7          	lui	a5,0x40000
  a28fee:	4788                	lw	a0,8(a5)
  a28ff0:	893d                	andi	a0,a0,15
  a28ff2:	478d                	li	a5,3
  a28ff4:	1ef57b63          	bgeu	a0,a5,a291ea <start_fastboot+0x372>
  a28ff8:	0505                	addi	a0,a0,1
  a28ffa:	3599                	jal	ra,a28e40 <ws63_set_try_fix_cnt>
  a28ffc:	3531                	jal	ra,a28e08 <reset>
  a28ffe:	4501                	li	a0,0
  a29000:	3b7030ef          	jal	ra,a2cbb6 <set_reset_count>
  a29004:	4501                	li	a0,0
  a29006:	3d2d                	jal	ra,a28e40 <ws63_set_try_fix_cnt>
  a29008:	4671                	li	a2,28
  a2900a:	4581                	li	a1,0
  a2900c:	1848                	addi	a0,sp,52
  a2900e:	3a59                	jal	ra,a289a4 <memset>
  a29010:	1848                	addi	a0,sp,52
  a29012:	0db040ef          	jal	ra,a2d8ec <mfg_get_ftm_run_region>
  a29016:	c90d                	beqz	a0,a29048 <start_fastboot+0x1d0>
  a29018:	57e2                	lw	a5,56(sp)
  a2901a:	4b7c f333 071f      	l.li	a4,0x4b7cf333
  a29020:	4394                	lw	a3,0(a5)
  a29022:	02e69363          	bne	a3,a4,a29048 <start_fastboot+0x1d0>
  a29026:	4726                	lw	a4,72(sp)
  a29028:	e305                	bnez	a4,a29048 <start_fastboot+0x1d0>
  a2902a:	4706                	lw	a4,64(sp)
  a2902c:	00c4d693          	srli	a3,s1,0xc
  a29030:	83b1                	srli	a5,a5,0xc
  a29032:	94ba                	add	s1,s1,a4
  a29034:	44008737          	lui	a4,0x44008
  a29038:	80d72023          	sw	a3,-2048(a4) # 44007800 <_gp_+0x435d3044>
  a2903c:	80b1                	srli	s1,s1,0xc
  a2903e:	82972023          	sw	s1,-2016(a4)
  a29042:	8f95                	sub	a5,a5,a3
  a29044:	84f72023          	sw	a5,-1984(a4)
  a29048:	400007b7          	lui	a5,0x40000
  a2904c:	53d8                	lw	a4,36(a5)
  a2904e:	0207a223          	sw	zero,36(a5) # 40000024 <_gp_+0x3f5cb868>
  a29052:	5a5a 5a5a 079f      	l.li	a5,0x5a5a5a5a
  a29058:	04f71063          	bne	a4,a5,a29098 <start_fastboot+0x220>
  a2905c:	77a010ef          	jal	ra,a2a7d6 <uapi_watchdog_kick>
  a29060:	00a3 208c 051f      	l.li	a0,0xa3208c
  a29066:	275030ef          	jal	ra,a2cada <boot_msg0>
  a2906a:	102c                	addi	a1,sp,40
  a2906c:	4509                	li	a0,2
  a2906e:	d402                	sw	zero,40(sp)
  a29070:	d602                	sw	zero,44(sp)
  a29072:	d802                	sw	zero,48(sp)
  a29074:	da02                	sw	zero,52(sp)
  a29076:	dc02                	sw	zero,56(sp)
  a29078:	de02                	sw	zero,60(sp)
  a2907a:	33b040ef          	jal	ra,a2dbb4 <uapi_partition_get_info>
  a2907e:	84aa                	mv	s1,a0
  a29080:	184c                	addi	a1,sp,52
  a29082:	4505                	li	a0,1
  a29084:	331040ef          	jal	ra,a2dbb4 <uapi_partition_get_info>
  a29088:	8d45                	or	a0,a0,s1
  a2908a:	18050c63          	beqz	a0,a29222 <start_fastboot+0x3aa>
  a2908e:	00a3 20ac 051f      	l.li	a0,0xa320ac
  a29094:	247030ef          	jal	ra,a2cada <boot_msg0>
  a29098:	73e010ef          	jal	ra,a2a7d6 <uapi_watchdog_kick>
  a2909c:	8522                	mv	a0,s0
  a2909e:	3b69                	jal	ra,a28e38 <jump_to_execute_addr>
  a290a0:	8a54                	popret	{ra,s0-s3},192
  a290a2:	00a3 1d7c 051f      	l.li	a0,0xa31d7c
  a290a8:	233030ef          	jal	ra,a2cada <boot_msg0>
  a290ac:	bd9d                	j	a28f22 <start_fastboot+0xaa>
  a290ae:	0828                	addi	a0,sp,24
  a290b0:	290040ef          	jal	ra,a2d340 <upg_get_upgrade_flag_flash_start_addr>
  a290b4:	4562                	lw	a0,24(sp)
  a290b6:	06c00593          	li	a1,108
  a290ba:	1850                	addi	a2,sp,52
  a290bc:	31e040ef          	jal	ra,a2d3da <upg_flash_read>
  a290c0:	85aa                	mv	a1,a0
  a290c2:	c509                	beqz	a0,a290cc <start_fastboot+0x254>
  a290c4:	00a3 1dec 051f      	l.li	a0,0xa31dec
  a290ca:	b57d                	j	a28f78 <start_fastboot+0x100>
  a290cc:	5752                	lw	a4,52(sp)
  a290ce:	55aa 55aa 079f      	l.li	a5,0x55aa55aa
  a290d4:	00f71a63          	bne	a4,a5,a290e8 <start_fastboot+0x270>
  a290d8:	477a                	lw	a4,156(sp)
  a290da:	aa55 aa55 079f      	l.li	a5,0xaa55aa55
  a290e0:	00f71463          	bne	a4,a5,a290e8 <start_fastboot+0x270>
  a290e4:	47ea                	lw	a5,152(sp)
  a290e6:	e799                	bnez	a5,a290f4 <start_fastboot+0x27c>
  a290e8:	00a3 1e04 051f      	l.li	a0,0xa31e04
  a290ee:	1ed030ef          	jal	ra,a2cada <boot_msg0>
  a290f2:	b569                	j	a28f7c <start_fastboot+0x104>
  a290f4:	00a3 1e1c 051f      	l.li	a0,0xa31e1c
  a290fa:	1e1030ef          	jal	ra,a2cada <boot_msg0>
  a290fe:	21d050ef          	jal	ra,a2eb1a <uapi_upg_start>
  a29102:	800037b7          	lui	a5,0x80003
  a29106:	04778693          	addi	a3,a5,71 # 80003047 <_gp_+0x7f5ce88b>
  a2910a:	00a32737          	lui	a4,0xa32
  a2910e:	02d50263          	beq	a0,a3,a29132 <start_fastboot+0x2ba>
  a29112:	04078793          	addi	a5,a5,64
  a29116:	00f50e63          	beq	a0,a5,a29132 <start_fastboot+0x2ba>
  a2911a:	cd01                	beqz	a0,a29132 <start_fastboot+0x2ba>
  a2911c:	e2c70513          	addi	a0,a4,-468 # a31e2c <sfc_cfg+0x10c>
  a29120:	1bb030ef          	jal	ra,a2cada <boot_msg0>
  a29124:	00a3 1e48 051f      	l.li	a0,0xa31e48
  a2912a:	1b1030ef          	jal	ra,a2cada <boot_msg0>
  a2912e:	39e9                	jal	ra,a28e08 <reset>
  a29130:	b5b1                	j	a28f7c <start_fastboot+0x104>
  a29132:	e2c70513          	addi	a0,a4,-468
  a29136:	1a5030ef          	jal	ra,a2cada <boot_msg0>
  a2913a:	00a3 1e64 051f      	l.li	a0,0xa31e64
  a29140:	b7ed                	j	a2912a <start_fastboot+0x2b2>
  a29142:	012467b3          	or	a5,s0,s2
  a29146:	0ff7f793          	andi	a5,a5,255
  a2914a:	cb89                	beqz	a5,a2915c <start_fastboot+0x2e4>
  a2914c:	864a                	mv	a2,s2
  a2914e:	85a6                	mv	a1,s1
  a29150:	00a3 1ecc 051f      	l.li	a0,0xa31ecc
  a29156:	1b3030ef          	jal	ra,a2cb08 <boot_msg2>
  a2915a:	317d                	jal	ra,a28e08 <reset>
  a2915c:	00a3 1f08 051f      	l.li	a0,0xa31f08
  a29162:	179030ef          	jal	ra,a2cada <boot_msg0>
  a29166:	04c98793          	addi	a5,s3,76
  a2916a:	dc3e                	sw	a5,56(sp)
  a2916c:	47f1                	li	a5,28
  a2916e:	184c                	addi	a1,sp,52
  a29170:	de3e                	sw	a5,60(sp)
  a29172:	4641                	li	a2,16
  a29174:	4785                	li	a5,1
  a29176:	850a                	mv	a0,sp
  a29178:	04f10023          	sb	a5,64(sp)
  a2917c:	38d9                	jal	ra,a28a52 <memcpy>
  a2917e:	850a                	mv	a0,sp
  a29180:	1a1000ef          	jal	ra,a29b20 <drv_rom_cipher_config_odrk1>
  a29184:	85aa                	mv	a1,a0
  a29186:	c519                	beqz	a0,a29194 <start_fastboot+0x31c>
  a29188:	00a3 1f20 051f      	l.li	a0,0xa31f20
  a2918e:	15f030ef          	jal	ra,a2caec <boot_msg1>
  a29192:	399d                	jal	ra,a28e08 <reset>
  a29194:	85a2                	mv	a1,s0
  a29196:	4741                	li	a4,16
  a29198:	06c98693          	addi	a3,s3,108
  a2919c:	864a                	mv	a2,s2
  a2919e:	4501                	li	a0,0
  a291a0:	1e5000ef          	jal	ra,a29b84 <drv_rom_cipher_fapc_config>
  a291a4:	85aa                	mv	a1,a0
  a291a6:	c519                	beqz	a0,a291b4 <start_fastboot+0x33c>
  a291a8:	00a3 1f54 051f      	l.li	a0,0xa31f54
  a291ae:	13f030ef          	jal	ra,a2caec <boot_msg1>
  a291b2:	3999                	jal	ra,a28e08 <reset>
  a291b4:	85ca                	mv	a1,s2
  a291b6:	4685                	li	a3,1
  a291b8:	00a00637          	lui	a2,0xa00
  a291bc:	4505                	li	a0,1
  a291be:	20d000ef          	jal	ra,a29bca <drv_rom_cipher_fapc_bypass_config>
  a291c2:	85aa                	mv	a1,a0
  a291c4:	e00505e3          	beqz	a0,a28fce <start_fastboot+0x156>
  a291c8:	00a3 1f88 051f      	l.li	a0,0xa31f88
  a291ce:	11f030ef          	jal	ra,a2caec <boot_msg1>
  a291d2:	391d                	jal	ra,a28e08 <reset>
  a291d4:	bbed                	j	a28fce <start_fastboot+0x156>
  a291d6:	85a2                	mv	a1,s0
  a291d8:	8526                	mv	a0,s1
  a291da:	290d                	jal	ra,a2960c <verify_image_body>
  a291dc:	85aa                	mv	a1,a0
  a291de:	e20500e3          	beqz	a0,a28ffe <start_fastboot+0x186>
  a291e2:	00a3 1ff4 051f      	l.li	a0,0xa31ff4
  a291e8:	bbfd                	j	a28fe6 <start_fastboot+0x16e>
  a291ea:	4799                	li	a5,6
  a291ec:	e0f578e3          	bgeu	a0,a5,a28ffc <start_fastboot+0x184>
  a291f0:	0505                	addi	a0,a0,1
  a291f2:	31b9                	jal	ra,a28e40 <ws63_set_try_fix_cnt>
  a291f4:	406050ef          	jal	ra,a2e5fa <uapi_upg_reset_upgrade_flag>
  a291f8:	85aa                	mv	a1,a0
  a291fa:	c519                	beqz	a0,a29208 <start_fastboot+0x390>
  a291fc:	00a3 201c 051f      	l.li	a0,0xa3201c
  a29202:	0eb030ef          	jal	ra,a2caec <boot_msg1>
  a29206:	bbdd                	j	a28ffc <start_fastboot+0x184>
  a29208:	468050ef          	jal	ra,a2e670 <uapi_upg_request_upgrade>
  a2920c:	c519                	beqz	a0,a2921a <start_fastboot+0x3a2>
  a2920e:	00a3 203c 051f      	l.li	a0,0xa3203c
  a29214:	0c7030ef          	jal	ra,a2cada <boot_msg0>
  a29218:	b3d5                	j	a28ffc <start_fastboot+0x184>
  a2921a:	00a3 2068 051f      	l.li	a0,0xa32068
  a29220:	bfd5                	j	a29214 <start_fastboot+0x39c>
  a29222:	55f2                	lw	a1,60(sp)
  a29224:	5562                	lw	a0,56(sp)
  a29226:	53c030ef          	jal	ra,a2c762 <uapi_sfc_reg_erase>
  a2922a:	85aa                	mv	a1,a0
  a2922c:	c511                	beqz	a0,a29238 <start_fastboot+0x3c0>
  a2922e:	00a3 20d0 051f      	l.li	a0,0xa320d0
  a29234:	0b9030ef          	jal	ra,a2caec <boot_msg1>
  a29238:	57b2                	lw	a5,44(sp)
  a2923a:	5642                	lw	a2,48(sp)
  a2923c:	5562                	lw	a0,56(sp)
  a2923e:	002005b7          	lui	a1,0x200
  a29242:	95be                	add	a1,a1,a5
  a29244:	420030ef          	jal	ra,a2c664 <uapi_sfc_reg_write>
  a29248:	85aa                	mv	a1,a0
  a2924a:	c511                	beqz	a0,a29256 <start_fastboot+0x3de>
  a2924c:	00a3 20fc 051f      	l.li	a0,0xa320fc
  a29252:	09b030ef          	jal	ra,a2caec <boot_msg1>
  a29256:	00a3 2128 051f      	l.li	a0,0xa32128
  a2925c:	bd25                	j	a29094 <start_fastboot+0x21c>

00a2925e <check_image_id>:
  a2925e:	00a326b7          	lui	a3,0xa32
  a29262:	1f068713          	addi	a4,a3,496 # a321f0 <g_verify_table>
  a29266:	4781                	li	a5,0
  a29268:	1f068693          	addi	a3,a3,496
  a2926c:	4839                	li	a6,14
  a2926e:	00074883          	lbu	a7,0(a4)
  a29272:	02a89463          	bne	a7,a0,a2929a <check_image_id+0x3c>
  a29276:	00174883          	lbu	a7,1(a4)
  a2927a:	02b89063          	bne	a7,a1,a2929a <check_image_id+0x3c>
  a2927e:	0cf697db          	muliadd	a5,a3,a5,12
  a29282:	43dc                	lw	a5,4(a5)
  a29284:	4501                	li	a0,0
  a29286:	02c78063          	beq	a5,a2,a292a6 <check_image_id+0x48>
  a2928a:	8018                	push	{ra},-16
  a2928c:	00a3 2170 051f      	l.li	a0,0xa32170
  a29292:	049030ef          	jal	ra,a2cada <boot_msg0>
  a29296:	557d                	li	a0,-1
  a29298:	8014                	popret	{ra},16
  a2929a:	0785                	addi	a5,a5,1
  a2929c:	0731                	addi	a4,a4,12
  a2929e:	fd0798e3          	bne	a5,a6,a2926e <check_image_id+0x10>
  a292a2:	4781                	li	a5,0
  a292a4:	b7c5                	j	a29284 <check_image_id+0x26>
  a292a6:	8082                	ret

00a292a8 <check_verify_enable>:
  a292a8:	8118                	push	{ra},-32
  a292aa:	57fd                	li	a5,-1
  a292ac:	4605                	li	a2,1
  a292ae:	00f10593          	addi	a1,sp,15
  a292b2:	451d                	li	a0,7
  a292b4:	00f107a3          	sb	a5,15(sp)
  a292b8:	616030ef          	jal	ra,a2c8ce <efuse_read_item>
  a292bc:	c901                	beqz	a0,a292cc <check_verify_enable+0x24>
  a292be:	00a3 21b4 051f      	l.li	a0,0xa321b4
  a292c4:	017030ef          	jal	ra,a2cada <boot_msg0>
  a292c8:	557d                	li	a0,-1
  a292ca:	8114                	popret	{ra},32
  a292cc:	00f14783          	lbu	a5,15(sp)
  a292d0:	4501                	li	a0,0
  a292d2:	ffe5                	bnez	a5,a292ca <check_verify_enable+0x22>
  a292d4:	80000537          	lui	a0,0x80000
  a292d8:	0509                	addi	a0,a0,2 # 80000002 <_gp_+0x7f5cb846>
  a292da:	bfc5                	j	a292ca <check_verify_enable+0x22>

00a292dc <check_msid>:
  a292dc:	8138                	push	{ra,s0-s1},-32
  a292de:	842a                	mv	s0,a0
  a292e0:	84ae                	mv	s1,a1
  a292e2:	4611                	li	a2,4
  a292e4:	006c                	addi	a1,sp,12
  a292e6:	4519                	li	a0,6
  a292e8:	c602                	sw	zero,12(sp)
  a292ea:	5e4030ef          	jal	ra,a2c8ce <efuse_read_item>
  a292ee:	c901                	beqz	a0,a292fe <check_msid+0x22>
  a292f0:	00a3 2180 051f      	l.li	a0,0xa32180
  a292f6:	7e4030ef          	jal	ra,a2cada <boot_msg0>
  a292fa:	557d                	li	a0,-1
  a292fc:	8134                	popret	{ra,s0-s1},32
  a292fe:	47b2                	lw	a5,12(sp)
  a29300:	4501                	li	a0,0
  a29302:	8c3d                	xor	s0,s0,a5
  a29304:	8c65                	and	s0,s0,s1
  a29306:	d87d                	beqz	s0,a292fc <check_msid+0x20>
  a29308:	00a3 21a0 051f      	l.li	a0,0xa321a0
  a2930e:	b7e5                	j	a292f6 <check_msid+0x1a>

00a29310 <secure_authenticate.constprop.2>:
  a29310:	8448                	push	{ra,s0-s2},-80
  a29312:	02010913          	addi	s2,sp,32
  a29316:	84aa                	mv	s1,a0
  a29318:	8436                	mv	s0,a3
  a2931a:	852e                	mv	a0,a1
  a2931c:	02000693          	li	a3,32
  a29320:	85b2                	mv	a1,a2
  a29322:	864a                	mv	a2,s2
  a29324:	c402                	sw	zero,8(sp)
  a29326:	c602                	sw	zero,12(sp)
  a29328:	c802                	sw	zero,16(sp)
  a2932a:	c002                	sw	zero,0(sp)
  a2932c:	c202                	sw	zero,4(sp)
  a2932e:	ca02                	sw	zero,20(sp)
  a29330:	cc02                	sw	zero,24(sp)
  a29332:	ce02                	sw	zero,28(sp)
  a29334:	61f000ef          	jal	ra,a2a152 <drv_rom_cipher_sha256>
  a29338:	c909                	beqz	a0,a2934a <secure_authenticate.constprop.2+0x3a>
  a2933a:	00a3 2298 051f      	l.li	a0,0xa32298
  a29340:	79a030ef          	jal	ra,a2cada <boot_msg0>
  a29344:	57fd                	li	a5,-1
  a29346:	853e                	mv	a0,a5
  a29348:	8444                	popret	{ra,s0-s2},80
  a2934a:	02000793          	li	a5,32
  a2934e:	c426                	sw	s1,8(sp)
  a29350:	ca22                	sw	s0,20(sp)
  a29352:	02048493          	addi	s1,s1,32
  a29356:	02040413          	addi	s0,s0,32
  a2935a:	0850                	addi	a2,sp,20
  a2935c:	858a                	mv	a1,sp
  a2935e:	0028                	addi	a0,sp,8
  a29360:	c83e                	sw	a5,16(sp)
  a29362:	c03e                	sw	a5,0(sp)
  a29364:	ce3e                	sw	a5,28(sp)
  a29366:	c626                	sw	s1,12(sp)
  a29368:	c24a                	sw	s2,4(sp)
  a2936a:	cc22                	sw	s0,24(sp)
  a2936c:	5df000ef          	jal	ra,a2a14a <drv_rom_cipher_pke_bp256r_verify>
  a29370:	4781                	li	a5,0
  a29372:	d971                	beqz	a0,a29346 <secure_authenticate.constprop.2+0x36>
  a29374:	00a3 22c8 051f      	l.li	a0,0xa322c8
  a2937a:	b7d9                	j	a29340 <secure_authenticate.constprop.2+0x30>

00a2937c <check_die_id.constprop.3>:
  a2937c:	8138                	push	{ra,s0-s1},-32
  a2937e:	84aa                	mv	s1,a0
  a29380:	4641                	li	a2,16
  a29382:	858a                	mv	a1,sp
  a29384:	4505                	li	a0,1
  a29386:	c002                	sw	zero,0(sp)
  a29388:	c202                	sw	zero,4(sp)
  a2938a:	c402                	sw	zero,8(sp)
  a2938c:	c602                	sw	zero,12(sp)
  a2938e:	540030ef          	jal	ra,a2c8ce <efuse_read_item>
  a29392:	c909                	beqz	a0,a293a4 <check_die_id.constprop.3+0x28>
  a29394:	00a3 213c 051f      	l.li	a0,0xa3213c
  a2939a:	740030ef          	jal	ra,a2cada <boot_msg0>
  a2939e:	547d                	li	s0,-1
  a293a0:	8522                	mv	a0,s0
  a293a2:	8134                	popret	{ra,s0-s1},32
  a293a4:	842a                	mv	s0,a0
  a293a6:	4641                	li	a2,16
  a293a8:	85a6                	mv	a1,s1
  a293aa:	850a                	mv	a0,sp
  a293ac:	943ff0ef          	jal	ra,a28cee <memcmp>
  a293b0:	d965                	beqz	a0,a293a0 <check_die_id.constprop.3+0x24>
  a293b2:	00a3 215c 051f      	l.li	a0,0xa3215c
  a293b8:	b7cd                	j	a2939a <check_die_id.constprop.3+0x1e>

00a293ba <check_version>:
  a293ba:	8138                	push	{ra,s0-s1},-32
  a293bc:	00a32737          	lui	a4,0xa32
  a293c0:	84b2                	mv	s1,a2
  a293c2:	1f070693          	addi	a3,a4,496 # a321f0 <g_verify_table>
  a293c6:	842e                	mv	s0,a1
  a293c8:	c602                	sw	zero,12(sp)
  a293ca:	4781                	li	a5,0
  a293cc:	1f070713          	addi	a4,a4,496
  a293d0:	4639                	li	a2,14
  a293d2:	228c                	lbu	a1,0(a3)
  a293d4:	02a59463          	bne	a1,a0,a293fc <check_version+0x42>
  a293d8:	0cf717db          	muliadd	a5,a4,a5,12
  a293dc:	2788                	lbu	a0,8(a5)
  a293de:	006c                	addi	a1,sp,12
  a293e0:	4611                	li	a2,4
  a293e2:	4ec030ef          	jal	ra,a2c8ce <efuse_read_item>
  a293e6:	87aa                	mv	a5,a0
  a293e8:	009475b3          	and	a1,s0,s1
  a293ec:	c115                	beqz	a0,a29410 <check_version+0x56>
  a293ee:	00a3 2180 051f      	l.li	a0,0xa32180
  a293f4:	6e6030ef          	jal	ra,a2cada <boot_msg0>
  a293f8:	557d                	li	a0,-1
  a293fa:	8134                	popret	{ra,s0-s1},32
  a293fc:	0785                	addi	a5,a5,1
  a293fe:	06b1                	addi	a3,a3,12
  a29400:	fcc799e3          	bne	a5,a2,a293d2 <check_version+0x18>
  a29404:	4501                	li	a0,0
  a29406:	bfe1                	j	a293de <check_version+0x24>
  a29408:	fff58713          	addi	a4,a1,-1 # 1fffff <__heap_size+0x1e2a07>
  a2940c:	8df9                	and	a1,a1,a4
  a2940e:	0785                	addi	a5,a5,1
  a29410:	fde5                	bnez	a1,a29408 <check_version+0x4e>
  a29412:	4632                	lw	a2,12(sp)
  a29414:	8e65                	and	a2,a2,s1
  a29416:	ea01                	bnez	a2,a29426 <check_version+0x6c>
  a29418:	4501                	li	a0,0
  a2941a:	feb7f0e3          	bgeu	a5,a1,a293fa <check_version+0x40>
  a2941e:	00a3 21d8 051f      	l.li	a0,0xa321d8
  a29424:	bfc1                	j	a293f4 <check_version+0x3a>
  a29426:	fff60713          	addi	a4,a2,-1 # 9fffff <__heap_size+0x9e2a07>
  a2942a:	8e79                	and	a2,a2,a4
  a2942c:	0585                	addi	a1,a1,1
  a2942e:	b7e5                	j	a29416 <check_version+0x5c>

00a29430 <verify_image_head>:
  a29430:	8048                	push	{ra,s0-s2},-16
  a29432:	1c060963          	beqz	a2,a29604 <verify_image_head+0x1d4>
  a29436:	f0000793          	li	a5,-256
  a2943a:	1cf60563          	beq	a2,a5,a29604 <verify_image_head+0x1d4>
  a2943e:	8432                	mv	s0,a2
  a29440:	892e                	mv	s2,a1
  a29442:	84aa                	mv	s1,a0
  a29444:	3595                	jal	ra,a292a8 <check_verify_enable>
  a29446:	800007b7          	lui	a5,0x80000
  a2944a:	0789                	addi	a5,a5,2 # 80000002 <_gp_+0x7f5cb846>
  a2944c:	02f51563          	bne	a0,a5,a29476 <verify_image_head+0x46>
  a29450:	00a3 2380 051f      	l.li	a0,0xa32380
  a29456:	684030ef          	jal	ra,a2cada <boot_msg0>
  a2945a:	35b9                	jal	ra,a292a8 <check_verify_enable>
  a2945c:	800007b7          	lui	a5,0x80000
  a29460:	0789                	addi	a5,a5,2 # 80000002 <_gp_+0x7f5cb846>
  a29462:	0ef51e63          	bne	a0,a5,a2955e <verify_image_head+0x12e>
  a29466:	00a3 24f0 051f      	l.li	a0,0xa324f0
  a2946c:	66e030ef          	jal	ra,a2cada <boot_msg0>
  a29470:	4401                	li	s0,0
  a29472:	8522                	mv	a0,s0
  a29474:	8044                	popret	{ra,s0-s2},16
  a29476:	ff05183b          	bnei	a0,-1,a29496 <verify_image_head+0x66>
  a2947a:	00a3 23b0 051f      	l.li	a0,0xa323b0
  a29480:	65a030ef          	jal	ra,a2cada <boot_msg0>
  a29484:	8000 15c0 041f      	l.li	s0,0x800015c0
  a2948a:	00a3 24d4 051f      	l.li	a0,0xa324d4
  a29490:	64a030ef          	jal	ra,a2cada <boot_msg0>
  a29494:	bff9                	j	a29472 <verify_image_head+0x42>
  a29496:	c491                	beqz	s1,a294a2 <verify_image_head+0x72>
  a29498:	ffe48793          	addi	a5,s1,-2
  a2949c:	9f81                	uxtb	a5
  a2949e:	0207f8bb          	bgeui	a5,2,a294c0 <verify_image_head+0x90>
  a294a2:	00a0 5514 079f      	l.li	a5,0xa05514
  a294a8:	439c                	lw	a5,0(a5)
  a294aa:	050785bb          	beqi	a5,5,a294c0 <verify_image_head+0x90>
  a294ae:	00a3 23dc 051f      	l.li	a0,0xa323dc
  a294b4:	626030ef          	jal	ra,a2cada <boot_msg0>
  a294b8:	8000 15c1 041f      	l.li	s0,0x800015c1
  a294be:	b7f1                	j	a2948a <verify_image_head+0x5a>
  a294c0:	4010                	lw	a2,0(s0)
  a294c2:	4581                	li	a1,0
  a294c4:	8526                	mv	a0,s1
  a294c6:	3b61                	jal	ra,a2925e <check_image_id>
  a294c8:	c911                	beqz	a0,a294dc <verify_image_head+0xac>
  a294ca:	00a3 240c 051f      	l.li	a0,0xa3240c
  a294d0:	60a030ef          	jal	ra,a2cada <boot_msg0>
  a294d4:	8000 15c2 041f      	l.li	s0,0x800015c2
  a294da:	bf45                	j	a2948a <verify_image_head+0x5a>
  a294dc:	0c040693          	addi	a3,s0,192
  a294e0:	0c000613          	li	a2,192
  a294e4:	85a2                	mv	a1,s0
  a294e6:	854a                	mv	a0,s2
  a294e8:	3525                	jal	ra,a29310 <secure_authenticate.constprop.2>
  a294ea:	c911                	beqz	a0,a294fe <verify_image_head+0xce>
  a294ec:	00a3 2434 051f      	l.li	a0,0xa32434
  a294f2:	5e8030ef          	jal	ra,a2cada <boot_msg0>
  a294f6:	8000 15c3 041f      	l.li	s0,0x800015c3
  a294fc:	b779                	j	a2948a <verify_image_head+0x5a>
  a294fe:	cc99                	beqz	s1,a2951c <verify_image_head+0xec>
  a29500:	5410                	lw	a2,40(s0)
  a29502:	504c                	lw	a1,36(s0)
  a29504:	8526                	mv	a0,s1
  a29506:	3d55                	jal	ra,a293ba <check_version>
  a29508:	c911                	beqz	a0,a2951c <verify_image_head+0xec>
  a2950a:	00a3 2460 051f      	l.li	a0,0xa32460
  a29510:	5ca030ef          	jal	ra,a2cada <boot_msg0>
  a29514:	8000 15c4 041f      	l.li	s0,0x800015c4
  a2951a:	bf85                	j	a2948a <verify_image_head+0x5a>
  a2951c:	580c                	lw	a1,48(s0)
  a2951e:	5448                	lw	a0,44(s0)
  a29520:	3b75                	jal	ra,a292dc <check_msid>
  a29522:	c911                	beqz	a0,a29536 <verify_image_head+0x106>
  a29524:	00a3 248c 051f      	l.li	a0,0xa3248c
  a2952a:	5b0030ef          	jal	ra,a2cada <boot_msg0>
  a2952e:	8000 15c5 041f      	l.li	s0,0x800015c5
  a29534:	bf99                	j	a2948a <verify_image_head+0x5a>
  a29536:	5858                	lw	a4,52(s0)
  a29538:	2a13 c812 079f      	l.li	a5,0x2a13c812
  a2953e:	f0f71ee3          	bne	a4,a5,a2945a <verify_image_head+0x2a>
  a29542:	03840513          	addi	a0,s0,56
  a29546:	3d1d                	jal	ra,a2937c <check_die_id.constprop.3>
  a29548:	f00509e3          	beqz	a0,a2945a <verify_image_head+0x2a>
  a2954c:	00a3 24b0 051f      	l.li	a0,0xa324b0
  a29552:	588030ef          	jal	ra,a2cada <boot_msg0>
  a29556:	8000 15c6 041f      	l.li	s0,0x800015c6
  a2955c:	b73d                	j	a2948a <verify_image_head+0x5a>
  a2955e:	ff05173b          	bnei	a0,-1,a2957a <verify_image_head+0x14a>
  a29562:	00a3 2520 051f      	l.li	a0,0xa32520
  a29568:	572030ef          	jal	ra,a2cada <boot_msg0>
  a2956c:	8000 15c0 041f      	l.li	s0,0x800015c0
  a29572:	00a3 25f0 051f      	l.li	a0,0xa325f0
  a29578:	bf21                	j	a29490 <verify_image_head+0x60>
  a2957a:	10042603          	lw	a2,256(s0)
  a2957e:	4585                	li	a1,1
  a29580:	8526                	mv	a0,s1
  a29582:	10040913          	addi	s2,s0,256
  a29586:	39e1                	jal	ra,a2925e <check_image_id>
  a29588:	c911                	beqz	a0,a2959c <verify_image_head+0x16c>
  a2958a:	00a3 254c 051f      	l.li	a0,0xa3254c
  a29590:	54a030ef          	jal	ra,a2cada <boot_msg0>
  a29594:	8000 15c2 041f      	l.li	s0,0x800015c2
  a2959a:	bfe1                	j	a29572 <verify_image_head+0x142>
  a2959c:	28040693          	addi	a3,s0,640
  a295a0:	18000613          	li	a2,384
  a295a4:	85ca                	mv	a1,s2
  a295a6:	08040513          	addi	a0,s0,128
  a295aa:	339d                	jal	ra,a29310 <secure_authenticate.constprop.2>
  a295ac:	c911                	beqz	a0,a295c0 <verify_image_head+0x190>
  a295ae:	00a3 2574 051f      	l.li	a0,0xa32574
  a295b4:	526030ef          	jal	ra,a2cada <boot_msg0>
  a295b8:	8000 15c3 041f      	l.li	s0,0x800015c3
  a295be:	bf55                	j	a29572 <verify_image_head+0x142>
  a295c0:	c08d                	beqz	s1,a295e2 <verify_image_head+0x1b2>
  a295c2:	01492603          	lw	a2,20(s2)
  a295c6:	01092583          	lw	a1,16(s2)
  a295ca:	8526                	mv	a0,s1
  a295cc:	33fd                	jal	ra,a293ba <check_version>
  a295ce:	c911                	beqz	a0,a295e2 <verify_image_head+0x1b2>
  a295d0:	00a3 25a0 051f      	l.li	a0,0xa325a0
  a295d6:	504030ef          	jal	ra,a2cada <boot_msg0>
  a295da:	8000 15c4 041f      	l.li	s0,0x800015c4
  a295e0:	bf49                	j	a29572 <verify_image_head+0x142>
  a295e2:	01c92583          	lw	a1,28(s2)
  a295e6:	01892503          	lw	a0,24(s2)
  a295ea:	39cd                	jal	ra,a292dc <check_msid>
  a295ec:	842a                	mv	s0,a0
  a295ee:	e80502e3          	beqz	a0,a29472 <verify_image_head+0x42>
  a295f2:	00a3 25cc 051f      	l.li	a0,0xa325cc
  a295f8:	4e2030ef          	jal	ra,a2cada <boot_msg0>
  a295fc:	8000 15c5 041f      	l.li	s0,0x800015c5
  a29602:	bf85                	j	a29572 <verify_image_head+0x142>
  a29604:	8000 15ca 041f      	l.li	s0,0x800015ca
  a2960a:	b5a5                	j	a29472 <verify_image_head+0x42>

00a2960c <verify_image_body>:
  a2960c:	8248                	push	{ra,s0-s2},-48
  a2960e:	f0000793          	li	a5,-256
  a29612:	06f50763          	beq	a0,a5,a29680 <verify_image_body+0x74>
  a29616:	c5ad                	beqz	a1,a29680 <verify_image_body+0x74>
  a29618:	84ae                	mv	s1,a1
  a2961a:	842a                	mv	s0,a0
  a2961c:	02000613          	li	a2,32
  a29620:	4581                	li	a1,0
  a29622:	10050913          	addi	s2,a0,256
  a29626:	850a                	mv	a0,sp
  a29628:	b7cff0ef          	jal	ra,a289a4 <memset>
  a2962c:	12442583          	lw	a1,292(s0)
  a29630:	02000693          	li	a3,32
  a29634:	860a                	mv	a2,sp
  a29636:	8526                	mv	a0,s1
  a29638:	31b000ef          	jal	ra,a2a152 <drv_rom_cipher_sha256>
  a2963c:	c105                	beqz	a0,a2965c <verify_image_body+0x50>
  a2963e:	00a3 2304 051f      	l.li	a0,0xa32304
  a29644:	496030ef          	jal	ra,a2cada <boot_msg0>
  a29648:	8000 15c7 041f      	l.li	s0,0x800015c7
  a2964e:	00a3 2360 051f      	l.li	a0,0xa32360
  a29654:	486030ef          	jal	ra,a2cada <boot_msg0>
  a29658:	8522                	mv	a0,s0
  a2965a:	8244                	popret	{ra,s0-s2},48
  a2965c:	12840593          	addi	a1,s0,296
  a29660:	02000613          	li	a2,32
  a29664:	850a                	mv	a0,sp
  a29666:	e88ff0ef          	jal	ra,a28cee <memcmp>
  a2966a:	4401                	li	s0,0
  a2966c:	d575                	beqz	a0,a29658 <verify_image_body+0x4c>
  a2966e:	00a3 2334 051f      	l.li	a0,0xa32334
  a29674:	466030ef          	jal	ra,a2cada <boot_msg0>
  a29678:	8000 15c8 041f      	l.li	s0,0x800015c8
  a2967e:	bfc1                	j	a2964e <verify_image_body+0x42>
  a29680:	8000 15ca 041f      	l.li	s0,0x800015ca
  a29686:	bfc9                	j	a29658 <verify_image_body+0x4c>

00a29688 <non_os_enter_critical>:
  a29688:	8038                	push	{ra,s0-s1},-16
  a2968a:	300024f3          	csrr	s1,mstatus
  a2968e:	300477f3          	csrrci	a5,mstatus,8
  a29692:	00a05437          	lui	s0,0xa05
  a29696:	52440793          	addi	a5,s0,1316 # a05524 <g_non_os_critical_nesting>
  a2969a:	239e                	lhu	a5,0(a5)
  a2969c:	52440413          	addi	s0,s0,1316
  a296a0:	9fa1                	uxth	a5
  a296a2:	eb89                	bnez	a5,a296b4 <non_os_enter_critical+0x2c>
  a296a4:	00a0 551c 079f      	l.li	a5,0xa0551c
  a296aa:	439c                	lw	a5,0(a5)
  a296ac:	c781                	beqz	a5,a296b4 <non_os_enter_critical+0x2c>
  a296ae:	8586                	mv	a1,ra
  a296b0:	4501                	li	a0,0
  a296b2:	9782                	jalr	a5
  a296b4:	00a0 5518 079f      	l.li	a5,0xa05518
  a296ba:	439c                	lw	a5,0(a5)
  a296bc:	c789                	beqz	a5,a296c6 <non_os_enter_critical+0x3e>
  a296be:	8586                	mv	a1,ra
  a296c0:	2012                	lhu	a2,0(s0)
  a296c2:	4501                	li	a0,0
  a296c4:	9782                	jalr	a5
  a296c6:	201e                	lhu	a5,0(s0)
  a296c8:	9fa1                	uxth	a5
  a296ca:	eb89                	bnez	a5,a296dc <non_os_enter_critical+0x54>
  a296cc:	808d                	srli	s1,s1,0x3
  a296ce:	0014c493          	xori	s1,s1,1
  a296d2:	8885                	andi	s1,s1,1
  a296d4:	00a0 5520 079f      	l.li	a5,0xa05520
  a296da:	c384                	sw	s1,0(a5)
  a296dc:	201e                	lhu	a5,0(s0)
  a296de:	0785                	addi	a5,a5,1
  a296e0:	9fa1                	uxth	a5
  a296e2:	a01e                	sh	a5,0(s0)
  a296e4:	201e                	lhu	a5,0(s0)
  a296e6:	9fa1                	uxth	a5
  a296e8:	eb81                	bnez	a5,a296f8 <non_os_enter_critical+0x70>
  a296ea:	06300593          	li	a1,99
  a296ee:	03100513          	li	a0,49
  a296f2:	8030                	pop	{ra,s0-s1},16
  a296f4:	32a0406f          	j	a2da1e <panic>
  a296f8:	0ff0000f          	fence
  a296fc:	0ff0000f          	fence
  a29700:	8034                	popret	{ra,s0-s1},16

00a29702 <non_os_exit_critical>:
  a29702:	8038                	push	{ra,s0-s1},-16
  a29704:	00a05437          	lui	s0,0xa05
  a29708:	52440793          	addi	a5,s0,1316 # a05524 <g_non_os_critical_nesting>
  a2970c:	239e                	lhu	a5,0(a5)
  a2970e:	9fa1                	uxth	a5
  a29710:	eb81                	bnez	a5,a29720 <non_os_exit_critical+0x1e>
  a29712:	06f00593          	li	a1,111
  a29716:	03100513          	li	a0,49
  a2971a:	8030                	pop	{ra,s0-s1},16
  a2971c:	3020406f          	j	a2da1e <panic>
  a29720:	52440413          	addi	s0,s0,1316
  a29724:	201e                	lhu	a5,0(s0)
  a29726:	8486                	mv	s1,ra
  a29728:	17fd                	addi	a5,a5,-1
  a2972a:	9fa1                	uxth	a5
  a2972c:	a01e                	sh	a5,0(s0)
  a2972e:	00a0 5518 079f      	l.li	a5,0xa05518
  a29734:	439c                	lw	a5,0(a5)
  a29736:	c789                	beqz	a5,a29740 <non_os_exit_critical+0x3e>
  a29738:	8586                	mv	a1,ra
  a2973a:	2012                	lhu	a2,0(s0)
  a2973c:	4505                	li	a0,1
  a2973e:	9782                	jalr	a5
  a29740:	201e                	lhu	a5,0(s0)
  a29742:	9fa1                	uxth	a5
  a29744:	e785                	bnez	a5,a2976c <non_os_exit_critical+0x6a>
  a29746:	00a0 551c 079f      	l.li	a5,0xa0551c
  a2974c:	439c                	lw	a5,0(a5)
  a2974e:	c781                	beqz	a5,a29756 <non_os_exit_critical+0x54>
  a29750:	85a6                	mv	a1,s1
  a29752:	4505                	li	a0,1
  a29754:	9782                	jalr	a5
  a29756:	00a0 5520 079f      	l.li	a5,0xa05520
  a2975c:	439c                	lw	a5,0(a5)
  a2975e:	e399                	bnez	a5,a29764 <non_os_exit_critical+0x62>
  a29760:	300467f3          	csrrsi	a5,mstatus,8
  a29764:	0ff0000f          	fence
  a29768:	0ff0000f          	fence
  a2976c:	8034                	popret	{ra,s0-s1},16

00a2976e <malloc_register_funcs>:
  a2976e:	8018                	push	{ra},-16
  a29770:	862a                	mv	a2,a0
  a29772:	46b1                	li	a3,12
  a29774:	45b1                	li	a1,12
  a29776:	00a0 5528 051f      	l.li	a0,0xa05528
  a2977c:	1f4070ef          	jal	ra,a30970 <memcpy_s>
  a29780:	4501                	li	a0,0
  a29782:	8014                	popret	{ra},16

00a29784 <rom_malloc_init>:
  a29784:	8038                	push	{ra,s0-s1},-16
  a29786:	842e                	mv	s0,a1
  a29788:	46e1                	li	a3,24
  a2978a:	4601                	li	a2,0
  a2978c:	45e1                	li	a1,24
  a2978e:	84aa                	mv	s1,a0
  a29790:	25c070ef          	jal	ra,a309ec <memset_s>
  a29794:	ff840793          	addi	a5,s0,-8
  a29798:	00a0 5534 071f      	l.li	a4,0xa05534
  a2979e:	01b48513          	addi	a0,s1,27
  a297a2:	9bf1                	andi	a5,a5,-4
  a297a4:	9971                	andi	a0,a0,-4
  a297a6:	cb1c                	sw	a5,16(a4)
  a297a8:	17e1                	addi	a5,a5,-8
  a297aa:	8f89                	sub	a5,a5,a0
  a297ac:	c748                	sw	a0,12(a4)
  a297ae:	9fa1                	uxth	a5
  a297b0:	a15e                	sh	a5,4(a0)
  a297b2:	c71c                	sw	a5,8(a4)
  a297b4:	679d                	lui	a5,0x7
  a297b6:	07478793          	addi	a5,a5,116 # 7074 <ccause+0x60b2>
  a297ba:	a17e                	sh	a5,6(a0)
  a297bc:	00052023          	sw	zero,0(a0)
  a297c0:	8034                	popret	{ra,s0-s1},16

00a297c2 <malloc_init>:
  a297c2:	b7c9                	j	a29784 <rom_malloc_init>

00a297c4 <rom_malloc>:
  a297c4:	00a056b7          	lui	a3,0xa05
  a297c8:	53468793          	addi	a5,a3,1332 # a05534 <g_st_dfx>
  a297cc:	47dc                	lw	a5,12(a5)
  a297ce:	53468693          	addi	a3,a3,1332
  a297d2:	e399                	bnez	a5,a297d8 <rom_malloc+0x14>
  a297d4:	4501                	li	a0,0
  a297d6:	8082                	ret
  a297d8:	dd75                	beqz	a0,a297d4 <rom_malloc+0x10>
  a297da:	23f2                	lhu	a2,6(a5)
  a297dc:	671d                	lui	a4,0x7
  a297de:	07470813          	addi	a6,a4,116 # 7074 <ccause+0x60b2>
  a297e2:	01060663          	beq	a2,a6,a297ee <rom_malloc+0x2a>
  a297e6:	c6c70713          	addi	a4,a4,-916
  a297ea:	fee615e3          	bne	a2,a4,a297d4 <rom_malloc+0x10>
  a297ee:	050d                	addi	a0,a0,3
  a297f0:	9971                	andi	a0,a0,-4
  a297f2:	671d                	lui	a4,0x7
  a297f4:	9d21                	uxth	a0
  a297f6:	4881                	li	a7,0
  a297f8:	07470613          	addi	a2,a4,116 # 7074 <ccause+0x60b2>
  a297fc:	00850813          	addi	a6,a0,8
  a29800:	c6c70313          	addi	t1,a4,-916
  a29804:	0067de03          	lhu	t3,6(a5)
  a29808:	23da                	lhu	a4,4(a5)
  a2980a:	04ce1263          	bne	t3,a2,a2984e <rom_malloc+0x8a>
  a2980e:	02e87563          	bgeu	a6,a4,a29838 <rom_malloc+0x74>
  a29812:	8f09                	sub	a4,a4,a0
  a29814:	983e                	add	a6,a6,a5
  a29816:	1761                	addi	a4,a4,-8
  a29818:	00e81223          	sh	a4,4(a6)
  a2981c:	00c81323          	sh	a2,6(a6)
  a29820:	671d                	lui	a4,0x7
  a29822:	c6c70713          	addi	a4,a4,-916 # 6c6c <ccause+0x5caa>
  a29826:	c38c                	sw	a1,0(a5)
  a29828:	a3fa                	sh	a4,6(a5)
  a2982a:	4298                	lw	a4,0(a3)
  a2982c:	a3ca                	sh	a0,4(a5)
  a2982e:	953a                	add	a0,a0,a4
  a29830:	c288                	sw	a0,0(a3)
  a29832:	00878513          	addi	a0,a5,8
  a29836:	8082                	ret
  a29838:	00a76b63          	bltu	a4,a0,a2984e <rom_malloc+0x8a>
  a2983c:	661d                	lui	a2,0x7
  a2983e:	c6c60613          	addi	a2,a2,-916 # 6c6c <ccause+0x5caa>
  a29842:	c38c                	sw	a1,0(a5)
  a29844:	a3f2                	sh	a2,6(a5)
  a29846:	4290                	lw	a2,0(a3)
  a29848:	9732                	add	a4,a4,a2
  a2984a:	c298                	sw	a4,0(a3)
  a2984c:	b7dd                	j	a29832 <rom_malloc+0x6e>
  a2984e:	0721                	addi	a4,a4,8
  a29850:	97ba                	add	a5,a5,a4
  a29852:	4a98                	lw	a4,16(a3)
  a29854:	00e7ef63          	bltu	a5,a4,a29872 <rom_malloc+0xae>
  a29858:	f6089ee3          	bnez	a7,a297d4 <rom_malloc+0x10>
  a2985c:	46d8                	lw	a4,12(a3)
  a2985e:	235e                	lhu	a5,4(a4)
  a29860:	0106ae03          	lw	t3,16(a3)
  a29864:	07a1                	addi	a5,a5,8
  a29866:	00f708b3          	add	a7,a4,a5
  a2986a:	01c8ea63          	bltu	a7,t3,a2987e <rom_malloc+0xba>
  a2986e:	46dc                	lw	a5,12(a3)
  a29870:	4885                	li	a7,1
  a29872:	23fa                	lhu	a4,6(a5)
  a29874:	f86708e3          	beq	a4,t1,a29804 <rom_malloc+0x40>
  a29878:	f8c706e3          	beq	a4,a2,a29804 <rom_malloc+0x40>
  a2987c:	bfa1                	j	a297d4 <rom_malloc+0x10>
  a2987e:	00675e03          	lhu	t3,6(a4)
  a29882:	00ce1b63          	bne	t3,a2,a29898 <rom_malloc+0xd4>
  a29886:	0068de03          	lhu	t3,6(a7)
  a2988a:	00ce1763          	bne	t3,a2,a29898 <rom_malloc+0xd4>
  a2988e:	0048d883          	lhu	a7,4(a7)
  a29892:	97c6                	add	a5,a5,a7
  a29894:	a35e                	sh	a5,4(a4)
  a29896:	88ba                	mv	a7,a4
  a29898:	8746                	mv	a4,a7
  a2989a:	b7d1                	j	a2985e <rom_malloc+0x9a>

00a2989c <malloc>:
  a2989c:	8018                	push	{ra},-16
  a2989e:	8586                	mv	a1,ra
  a298a0:	8010                	pop	{ra},16
  a298a2:	b70d                	j	a297c4 <rom_malloc>

00a298a4 <rom_free>:
  a298a4:	c50d                	beqz	a0,a298ce <rom_free+0x2a>
  a298a6:	ffe55703          	lhu	a4,-2(a0)
  a298aa:	0000 6c6c 079f      	l.li	a5,0x6c6c
  a298b0:	00f71f63          	bne	a4,a5,a298ce <rom_free+0x2a>
  a298b4:	679d                	lui	a5,0x7
  a298b6:	07478793          	addi	a5,a5,116 # 7074 <ccause+0x60b2>
  a298ba:	fef51f23          	sh	a5,-2(a0)
  a298be:	00a0 5534 071f      	l.li	a4,0xa05534
  a298c4:	ffc55683          	lhu	a3,-4(a0)
  a298c8:	435c                	lw	a5,4(a4)
  a298ca:	97b6                	add	a5,a5,a3
  a298cc:	c35c                	sw	a5,4(a4)
  a298ce:	4501                	li	a0,0
  a298d0:	8082                	ret

00a298d2 <free>:
  a298d2:	bfc9                	j	a298a4 <rom_free>

00a298d4 <osal_irq_lock>:
  a298d4:	8018                	push	{ra},-16
  a298d6:	3b4d                	jal	ra,a29688 <non_os_enter_critical>
  a298d8:	4501                	li	a0,0
  a298da:	8014                	popret	{ra},16

00a298dc <osal_irq_restore>:
  a298dc:	b51d                	j	a29702 <non_os_exit_critical>

00a298de <uapi_pmp_config>:
  a298de:	8168                	push	{ra,s0-s4},-48
  a298e0:	842a                	mv	s0,a0
  a298e2:	84ae                	mv	s1,a1
  a298e4:	033020ef          	jal	ra,a2c116 <pmp_port_register_hal_funcs>
  a298e8:	21c010ef          	jal	ra,a2ab04 <hal_pmp_get_funcs>
  a298ec:	89aa                	mv	s3,a0
  a298ee:	4901                	li	s2,0
  a298f0:	4a05                	li	s4,1
  a298f2:	00991663          	bne	s2,s1,a298fe <uapi_pmp_config+0x20>
  a298f6:	0ff0000f          	fence
  a298fa:	4501                	li	a0,0
  a298fc:	8164                	popret	{ra,s0-s4},48
  a298fe:	4058                	lw	a4,4(s0)
  a29900:	3454                	lbu	a3,13(s0)
  a29902:	00042803          	lw	a6,0(s0)
  a29906:	00842883          	lw	a7,8(s0)
  a2990a:	245c                	lbu	a5,12(s0)
  a2990c:	246c                	lbu	a1,14(s0)
  a2990e:	3468                	lbu	a0,15(s0)
  a29910:	00275613          	srli	a2,a4,0x2
  a29914:	01468763          	beq	a3,s4,a29922 <uapi_pmp_config+0x44>
  a29918:	177d                	addi	a4,a4,-1
  a2991a:	4317071b          	addshf	a4,a4,a7,srl,1
  a2991e:	00275613          	srli	a2,a4,0x2
  a29922:	0077f713          	andi	a4,a5,7
  a29926:	00d14783          	lbu	a5,13(sp)
  a2992a:	8a8d                	andi	a3,a3,3
  a2992c:	00a10623          	sb	a0,12(sp)
  a29930:	0e07f793          	andi	a5,a5,224
  a29934:	8fd9                	or	a5,a5,a4
  a29936:	06d7a79b          	orshf	a5,a5,a3,sll,3
  a2993a:	07f7f793          	andi	a5,a5,127
  a2993e:	0eb7a79b          	orshf	a5,a5,a1,sll,7
  a29942:	c242                	sw	a6,4(sp)
  a29944:	c432                	sw	a2,8(sp)
  a29946:	00f106a3          	sb	a5,13(sp)
  a2994a:	0009a783          	lw	a5,0(s3)
  a2994e:	0048                	addi	a0,sp,4
  a29950:	0441                	addi	s0,s0,16
  a29952:	9782                	jalr	a5
  a29954:	f545                	bnez	a0,a298fc <uapi_pmp_config+0x1e>
  a29956:	0905                	addi	s2,s2,1
  a29958:	bf69                	j	a298f2 <uapi_pmp_config+0x14>

00a2995a <drv_rom_hash>:
  a2995a:	8e78                	push	{ra,s0-s5},-256
  a2995c:	892a                	mv	s2,a0
  a2995e:	8aae                	mv	s5,a1
  a29960:	84b2                	mv	s1,a2
  a29962:	4581                	li	a1,0
  a29964:	04000613          	li	a2,64
  a29968:	1008                	addi	a0,sp,32
  a2996a:	c63a                	sw	a4,12(sp)
  a2996c:	8a36                	mv	s4,a3
  a2996e:	843e                	mv	s0,a5
  a29970:	834ff0ef          	jal	ra,a289a4 <memset>
  a29974:	08000613          	li	a2,128
  a29978:	4581                	li	a1,0
  a2997a:	1088                	addi	a0,sp,96
  a2997c:	828ff0ef          	jal	ra,a289a4 <memset>
  a29980:	ce02                	sw	zero,28(sp)
  a29982:	4732                	lw	a4,12(sp)
  a29984:	000a9463          	bnez	s5,a2998c <drv_rom_hash+0x32>
  a29988:	557d                	li	a0,-1
  a2998a:	8e74                	popret	{ra,s0-s5},256
  a2998c:	fe0a0ee3          	beqz	s4,a29988 <drv_rom_hash+0x2e>
  a29990:	010007b7          	lui	a5,0x1000
  a29994:	fef4fae3          	bgeu	s1,a5,a29988 <drv_rom_hash+0x2e>
  a29998:	20f71c3b          	bnei	a4,32,a29988 <drv_rom_hash+0x2e>
  a2999c:	0216 9100 079f      	l.li	a5,0x2169100
  a299a2:	0cf90963          	beq	s2,a5,a29a74 <drv_rom_hash+0x11a>
  a299a6:	00a3 2610 061f      	l.li	a2,0xa32610
  a299ac:	85ca                	mv	a1,s2
  a299ae:	8522                	mv	a0,s0
  a299b0:	77a000ef          	jal	ra,a2a12a <hal_cipher_hash_config>
  a299b4:	f979                	bnez	a0,a2998a <drv_rom_hash+0x30>
  a299b6:	03f4f913          	andi	s2,s1,63
  a299ba:	412489b3          	sub	s3,s1,s2
  a299be:	0a099f63          	bnez	s3,a29a7c <drv_rom_hash+0x122>
  a299c2:	08000693          	li	a3,128
  a299c6:	4601                	li	a2,0
  a299c8:	08000593          	li	a1,128
  a299cc:	1088                	addi	a0,sp,96
  a299ce:	01e070ef          	jal	ra,a309ec <memset_s>
  a299d2:	86ca                	mv	a3,s2
  a299d4:	013a8633          	add	a2,s5,s3
  a299d8:	08000593          	li	a1,128
  a299dc:	1088                	addi	a0,sp,96
  a299de:	793060ef          	jal	ra,a30970 <memcpy_s>
  a299e2:	f15d                	bnez	a0,a29988 <drv_rom_hash+0x2e>
  a299e4:	119c                	addi	a5,sp,224
  a299e6:	97ca                	add	a5,a5,s2
  a299e8:	f8000713          	li	a4,-128
  a299ec:	f8e78023          	sb	a4,-128(a5) # ffff80 <_gp_+0x5cb7c4>
  a299f0:	04000993          	li	s3,64
  a299f4:	3809623b          	bltui	s2,56,a299fc <drv_rom_hash+0xa2>
  a299f8:	08000993          	li	s3,128
  a299fc:	00349713          	slli	a4,s1,0x3
  a29a00:	01b49613          	slli	a2,s1,0x1b
  a29a04:	0000 ff00 079f      	l.li	a5,0xff00
  a29a0a:	50e7c79b          	andshf	a5,a5,a4,srl,8
  a29a0e:	70e6261b          	orshf	a2,a2,a4,srl,24
  a29a12:	8e5d                	or	a2,a2,a5
  a29a14:	00ff07b7          	lui	a5,0xff0
  a29a18:	1697c49b          	andshf	s1,a5,s1,sll,11
  a29a1c:	8e45                	or	a2,a2,s1
  a29a1e:	ffc98513          	addi	a0,s3,-4
  a29a22:	109c                	addi	a5,sp,96
  a29a24:	ce32                	sw	a2,28(sp)
  a29a26:	4691                	li	a3,4
  a29a28:	0870                	addi	a2,sp,28
  a29a2a:	4591                	li	a1,4
  a29a2c:	953e                	add	a0,a0,a5
  a29a2e:	743060ef          	jal	ra,a30970 <memcpy_s>
  a29a32:	f939                	bnez	a0,a29988 <drv_rom_hash+0x2e>
  a29a34:	4695                	li	a3,5
  a29a36:	864e                	mv	a2,s3
  a29a38:	108c                	addi	a1,sp,96
  a29a3a:	8522                	mv	a0,s0
  a29a3c:	6f6000ef          	jal	ra,a2a132 <hal_cipher_hash_add_in_node>
  a29a40:	f529                	bnez	a0,a2998a <drv_rom_hash+0x30>
  a29a42:	4581                	li	a1,0
  a29a44:	8522                	mv	a0,s0
  a29a46:	6f4000ef          	jal	ra,a2a13a <hal_cipher_hash_start>
  a29a4a:	f121                	bnez	a0,a2998a <drv_rom_hash+0x30>
  a29a4c:	04000613          	li	a2,64
  a29a50:	100c                	addi	a1,sp,32
  a29a52:	8522                	mv	a0,s0
  a29a54:	6ee000ef          	jal	ra,a2a142 <hal_cipher_hash_wait_done>
  a29a58:	f90d                	bnez	a0,a2998a <drv_rom_hash+0x30>
  a29a5a:	02000693          	li	a3,32
  a29a5e:	1010                	addi	a2,sp,32
  a29a60:	02000593          	li	a1,32
  a29a64:	8552                	mv	a0,s4
  a29a66:	70b060ef          	jal	ra,a30970 <memcpy_s>
  a29a6a:	00a03533          	snez	a0,a0
  a29a6e:	40a00533          	neg	a0,a0
  a29a72:	bf21                	j	a2998a <drv_rom_hash+0x30>
  a29a74:	00a3 2630 061f      	l.li	a2,0xa32630
  a29a7a:	bf0d                	j	a299ac <drv_rom_hash+0x52>
  a29a7c:	4695                	li	a3,5
  a29a7e:	864e                	mv	a2,s3
  a29a80:	85d6                	mv	a1,s5
  a29a82:	8522                	mv	a0,s0
  a29a84:	257d                	jal	ra,a2a132 <hal_cipher_hash_add_in_node>
  a29a86:	f00512e3          	bnez	a0,a2998a <drv_rom_hash+0x30>
  a29a8a:	4581                	li	a1,0
  a29a8c:	8522                	mv	a0,s0
  a29a8e:	2575                	jal	ra,a2a13a <hal_cipher_hash_start>
  a29a90:	ee051de3          	bnez	a0,a2998a <drv_rom_hash+0x30>
  a29a94:	4601                	li	a2,0
  a29a96:	4581                	li	a1,0
  a29a98:	8522                	mv	a0,s0
  a29a9a:	2565                	jal	ra,a2a142 <hal_cipher_hash_wait_done>
  a29a9c:	f20503e3          	beqz	a0,a299c2 <drv_rom_hash+0x68>
  a29aa0:	b5ed                	j	a2998a <drv_rom_hash+0x30>

00a29aa2 <drv_rom_cipher_create_keyslot>:
  a29aa2:	8248                	push	{ra,s0-s2},-48
  a29aa4:	8432                	mv	s0,a2
  a29aa6:	84aa                	mv	s1,a0
  a29aa8:	4639                	li	a2,14
  a29aaa:	892e                	mv	s2,a1
  a29aac:	01210513          	addi	a0,sp,18
  a29ab0:	4581                	li	a1,0
  a29ab2:	ef3fe0ef          	jal	ra,a289a4 <memset>
  a29ab6:	02000793          	li	a5,32
  a29aba:	00f10823          	sb	a5,16(sp)
  a29abe:	4581                	li	a1,0
  a29ac0:	4785                	li	a5,1
  a29ac2:	0048                	addi	a0,sp,4
  a29ac4:	c622                	sw	s0,12(sp)
  a29ac6:	00f108a3          	sb	a5,17(sp)
  a29aca:	00f10923          	sb	a5,18(sp)
  a29ace:	00f10b23          	sb	a5,22(sp)
  a29ad2:	00f10c23          	sb	a5,24(sp)
  a29ad6:	24f9                	jal	ra,a29da4 <drv_keyslot_create>
  a29ad8:	842a                	mv	s0,a0
  a29ada:	ed0d                	bnez	a0,a29b14 <drv_rom_cipher_create_keyslot+0x72>
  a29adc:	0028                	addi	a0,sp,8
  a29ade:	2e91                	jal	ra,a29e32 <drv_klad_create>
  a29ae0:	842a                	mv	s0,a0
  a29ae2:	e91d                	bnez	a0,a29b18 <drv_rom_cipher_create_keyslot+0x76>
  a29ae4:	4612                	lw	a2,4(sp)
  a29ae6:	4522                	lw	a0,8(sp)
  a29ae8:	4581                	li	a1,0
  a29aea:	2e4d                	jal	ra,a29e9c <drv_klad_attach>
  a29aec:	842a                	mv	s0,a0
  a29aee:	e10d                	bnez	a0,a29b10 <drv_rom_cipher_create_keyslot+0x6e>
  a29af0:	4522                	lw	a0,8(sp)
  a29af2:	006c                	addi	a1,sp,12
  a29af4:	21a1                	jal	ra,a29f3c <drv_klad_set_attr>
  a29af6:	842a                	mv	s0,a0
  a29af8:	e901                	bnez	a0,a29b08 <drv_rom_cipher_create_keyslot+0x66>
  a29afa:	4522                	lw	a0,8(sp)
  a29afc:	85ca                	mv	a1,s2
  a29afe:	2155                	jal	ra,a29fa2 <drv_klad_set_effective_key>
  a29b00:	842a                	mv	s0,a0
  a29b02:	e119                	bnez	a0,a29b08 <drv_rom_cipher_create_keyslot+0x66>
  a29b04:	4792                	lw	a5,4(sp)
  a29b06:	c09c                	sw	a5,0(s1)
  a29b08:	4612                	lw	a2,4(sp)
  a29b0a:	4522                	lw	a0,8(sp)
  a29b0c:	4581                	li	a1,0
  a29b0e:	2ec5                	jal	ra,a29efe <drv_klad_detach>
  a29b10:	4522                	lw	a0,8(sp)
  a29b12:	2e99                	jal	ra,a29e68 <drv_klad_destroy>
  a29b14:	8522                	mv	a0,s0
  a29b16:	8244                	popret	{ra,s0-s2},48
  a29b18:	4088                	lw	a0,0(s1)
  a29b1a:	24c5                	jal	ra,a29dfa <drv_keyslot_destroy>
  a29b1c:	bfe5                	j	a29b14 <drv_rom_cipher_create_keyslot+0x72>

00a29b1e <drv_rom_cipher_destroy_keyslot>:
  a29b1e:	acf1                	j	a29dfa <drv_keyslot_destroy>

00a29b20 <drv_rom_cipher_config_odrk1>:
  a29b20:	8238                	push	{ra,s0-s1},-48
  a29b22:	4639                	li	a2,14
  a29b24:	4581                	li	a1,0
  a29b26:	84aa                	mv	s1,a0
  a29b28:	01210513          	addi	a0,sp,18
  a29b2c:	e79fe0ef          	jal	ra,a289a4 <memset>
  a29b30:	0300 000d 079f      	l.li	a5,0x300000d
  a29b36:	c63e                	sw	a5,12(sp)
  a29b38:	02000793          	li	a5,32
  a29b3c:	00f10823          	sb	a5,16(sp)
  a29b40:	0028                	addi	a0,sp,8
  a29b42:	4785                	li	a5,1
  a29b44:	00f108a3          	sb	a5,17(sp)
  a29b48:	00f10b23          	sb	a5,22(sp)
  a29b4c:	00f10c23          	sb	a5,24(sp)
  a29b50:	24cd                	jal	ra,a29e32 <drv_klad_create>
  a29b52:	842a                	mv	s0,a0
  a29b54:	e515                	bnez	a0,a29b80 <drv_rom_cipher_config_odrk1+0x60>
  a29b56:	4522                	lw	a0,8(sp)
  a29b58:	4601                	li	a2,0
  a29b5a:	4589                	li	a1,2
  a29b5c:	2681                	jal	ra,a29e9c <drv_klad_attach>
  a29b5e:	842a                	mv	s0,a0
  a29b60:	ed11                	bnez	a0,a29b7c <drv_rom_cipher_config_odrk1+0x5c>
  a29b62:	4522                	lw	a0,8(sp)
  a29b64:	006c                	addi	a1,sp,12
  a29b66:	2ed9                	jal	ra,a29f3c <drv_klad_set_attr>
  a29b68:	842a                	mv	s0,a0
  a29b6a:	e509                	bnez	a0,a29b74 <drv_rom_cipher_config_odrk1+0x54>
  a29b6c:	4522                	lw	a0,8(sp)
  a29b6e:	85a6                	mv	a1,s1
  a29b70:	290d                	jal	ra,a29fa2 <drv_klad_set_effective_key>
  a29b72:	842a                	mv	s0,a0
  a29b74:	4522                	lw	a0,8(sp)
  a29b76:	4601                	li	a2,0
  a29b78:	4589                	li	a1,2
  a29b7a:	2651                	jal	ra,a29efe <drv_klad_detach>
  a29b7c:	4522                	lw	a0,8(sp)
  a29b7e:	24ed                	jal	ra,a29e68 <drv_klad_destroy>
  a29b80:	8522                	mv	a0,s0
  a29b82:	8234                	popret	{ra,s0-s1},48

00a29b84 <drv_rom_cipher_fapc_config>:
  a29b84:	8348                	push	{ra,s0-s2},-64
  a29b86:	842e                	mv	s0,a1
  a29b88:	8932                	mv	s2,a2
  a29b8a:	84aa                	mv	s1,a0
  a29b8c:	4661                	li	a2,24
  a29b8e:	4581                	li	a1,0
  a29b90:	0828                	addi	a0,sp,24
  a29b92:	c636                	sw	a3,12(sp)
  a29b94:	c43a                	sw	a4,8(sp)
  a29b96:	e0ffe0ef          	jal	ra,a289a4 <memset>
  a29b9a:	4789                	li	a5,2
  a29b9c:	46b2                	lw	a3,12(sp)
  a29b9e:	d43e                	sw	a5,40(sp)
  a29ba0:	10100793          	li	a5,257
  a29ba4:	c822                	sw	s0,16(sp)
  a29ba6:	ca4a                	sw	s2,20(sp)
  a29ba8:	ce22                	sw	s0,28(sp)
  a29baa:	02f11623          	sh	a5,44(sp)
  a29bae:	557d                	li	a0,-1
  a29bb0:	ce81                	beqz	a3,a29bc8 <drv_rom_cipher_fapc_config+0x44>
  a29bb2:	4722                	lw	a4,8(sp)
  a29bb4:	1007153b          	bnei	a4,16,a29bc8 <drv_rom_cipher_fapc_config+0x44>
  a29bb8:	4641                	li	a2,16
  a29bba:	85b6                	mv	a1,a3
  a29bbc:	4501                	li	a0,0
  a29bbe:	2971                	jal	ra,a2a05a <drv_fapc_set_iv>
  a29bc0:	e501                	bnez	a0,a29bc8 <drv_rom_cipher_fapc_config+0x44>
  a29bc2:	080c                	addi	a1,sp,16
  a29bc4:	8526                	mv	a0,s1
  a29bc6:	2155                	jal	ra,a2a06a <drv_fapc_set_config>
  a29bc8:	8344                	popret	{ra,s0-s2},64

00a29bca <drv_rom_cipher_fapc_bypass_config>:
  a29bca:	a325                	j	a2a0f2 <drv_fapc_set_bypass_config>

00a29bcc <inner_symc_crypto>:
  a29bcc:	8168                	push	{ra,s0-s4},-48
  a29bce:	03014803          	lbu	a6,48(sp)
  a29bd2:	104618bb          	bnei	a2,16,a29cf4 <inner_symc_crypto+0x128>
  a29bd6:	01620737          	lui	a4,0x1620
  a29bda:	00080463          	beqz	a6,a29be2 <inner_symc_crypto+0x16>
  a29bde:	11620737          	lui	a4,0x11620
  a29be2:	1ff57513          	andi	a0,a0,511
  a29be6:	e0077713          	andi	a4,a4,-512
  a29bea:	8f49                	or	a4,a4,a0
  a29bec:	441044b7          	lui	s1,0x44104
  a29bf0:	8946                	mv	s2,a7
  a29bf2:	8a3e                	mv	s4,a5
  a29bf4:	842e                	mv	s0,a1
  a29bf6:	10e4a823          	sw	a4,272(s1) # 44104110 <_gp_+0x436cf954>
  a29bfa:	0ff0000f          	fence
  a29bfe:	1004a223          	sw	zero,260(s1)
  a29c02:	0ff0000f          	fence
  a29c06:	00a0 55ac 099f      	l.li	s3,0xa055ac
  a29c0c:	0009a703          	lw	a4,0(s3)
  a29c10:	00a0 554c 051f      	l.li	a0,0xa0554c
  a29c16:	0716                	slli	a4,a4,0x5
  a29c18:	00e50633          	add	a2,a0,a4
  a29c1c:	420c                	lw	a1,0(a2)
  a29c1e:	0741                	addi	a4,a4,16 # 11620010 <_gp_+0x10beb854>
  a29c20:	01162223          	sw	a7,4(a2)
  a29c24:	0035e593          	ori	a1,a1,3
  a29c28:	dff5f593          	andi	a1,a1,-513
  a29c2c:	c20c                	sw	a1,0(a2)
  a29c2e:	c614                	sw	a3,8(a2)
  a29c30:	00062623          	sw	zero,12(a2)
  a29c34:	46c1                	li	a3,16
  a29c36:	8622                	mv	a2,s0
  a29c38:	45c1                	li	a1,16
  a29c3a:	953a                	add	a0,a0,a4
  a29c3c:	535060ef          	jal	ra,a30970 <memcpy_s>
  a29c40:	0009a703          	lw	a4,0(s3)
  a29c44:	00a0 558c 069f      	l.li	a3,0xa0558c
  a29c4a:	08e6869b          	addshf	a3,a3,a4,sll,4
  a29c4e:	0705                	addi	a4,a4,1
  a29c50:	8b05                	andi	a4,a4,1
  a29c52:	00e9a023          	sw	a4,0(s3)
  a29c56:	0126a223          	sw	s2,4(a3)
  a29c5a:	0146a423          	sw	s4,8(a3)
  a29c5e:	0006a623          	sw	zero,12(a3)
  a29c62:	4410d6b7          	lui	a3,0x4410d
  a29c66:	5a9c                	lw	a5,48(a3)
  a29c68:	00178713          	addi	a4,a5,1 # ff0001 <_gp_+0x5bb845>
  a29c6c:	8b05                	andi	a4,a4,1
  a29c6e:	f007f793          	andi	a5,a5,-256
  a29c72:	8fd9                	or	a5,a5,a4
  a29c74:	da9c                	sw	a5,48(a3)
  a29c76:	0ff0000f          	fence
  a29c7a:	1304a783          	lw	a5,304(s1)
  a29c7e:	00178713          	addi	a4,a5,1
  a29c82:	8b05                	andi	a4,a4,1
  a29c84:	f007f793          	andi	a5,a5,-256
  a29c88:	8fd9                	or	a5,a5,a4
  a29c8a:	12f4a823          	sw	a5,304(s1)
  a29c8e:	0ff0000f          	fence
  a29c92:	0000 2710 049f      	l.li	s1,0x2710
  a29c98:	4410c937          	lui	s2,0x4410c
  a29c9c:	79c1                	lui	s3,0xffff0
  a29c9e:	00092783          	lw	a5,0(s2) # 4410c000 <_gp_+0x436d7844>
  a29ca2:	0027f713          	andi	a4,a5,2
  a29ca6:	0137f7b3          	and	a5,a5,s3
  a29caa:	8fd9                	or	a5,a5,a4
  a29cac:	cf0d                	beqz	a4,a29ce6 <inner_symc_crypto+0x11a>
  a29cae:	00f92023          	sw	a5,0(s2)
  a29cb2:	0ff0000f          	fence
  a29cb6:	441097b7          	lui	a5,0x44109
  a29cba:	0807a703          	lw	a4,128(a5) # 44109080 <_gp_+0x436d48c4>
  a29cbe:	46c1                	li	a3,16
  a29cc0:	860a                	mv	a2,sp
  a29cc2:	c03a                	sw	a4,0(sp)
  a29cc4:	0847a703          	lw	a4,132(a5)
  a29cc8:	45c1                	li	a1,16
  a29cca:	8522                	mv	a0,s0
  a29ccc:	c23a                	sw	a4,4(sp)
  a29cce:	0887a703          	lw	a4,136(a5)
  a29cd2:	c43a                	sw	a4,8(sp)
  a29cd4:	08c7a783          	lw	a5,140(a5)
  a29cd8:	c63e                	sw	a5,12(sp)
  a29cda:	497060ef          	jal	ra,a30970 <memcpy_s>
  a29cde:	cd01                	beqz	a0,a29cf6 <inner_symc_crypto+0x12a>
  a29ce0:	04000513          	li	a0,64
  a29ce4:	a809                	j	a29cf6 <inner_symc_crypto+0x12a>
  a29ce6:	4505                	li	a0,1
  a29ce8:	14fd                	addi	s1,s1,-1
  a29cea:	236d                	jal	ra,a2a294 <uapi_tcxo_delay_us>
  a29cec:	f8cd                	bnez	s1,a29c9e <inner_symc_crypto+0xd2>
  a29cee:	0b400513          	li	a0,180
  a29cf2:	a011                	j	a29cf6 <inner_symc_crypto+0x12a>
  a29cf4:	557d                	li	a0,-1
  a29cf6:	8164                	popret	{ra,s0-s4},48

00a29cf8 <drv_rom_cipher_symc_init>:
  a29cf8:	441007b7          	lui	a5,0x44100
  a29cfc:	4741                	li	a4,16
  a29cfe:	d398                	sw	a4,32(a5)
  a29d00:	0ff0000f          	fence
  a29d04:	441047b7          	lui	a5,0x44104
  a29d08:	00a0 554c 071f      	l.li	a4,0xa0554c
  a29d0e:	12e7a223          	sw	a4,292(a5) # 44104124 <_gp_+0x436cf968>
  a29d12:	0ff0000f          	fence
  a29d16:	4689                	li	a3,2
  a29d18:	12d7a623          	sw	a3,300(a5)
  a29d1c:	0ff0000f          	fence
  a29d20:	4410d737          	lui	a4,0x4410d
  a29d24:	00a0 558c 061f      	l.li	a2,0xa0558c
  a29d2a:	d350                	sw	a2,36(a4)
  a29d2c:	0ff0000f          	fence
  a29d30:	d714                	sw	a3,40(a4)
  a29d32:	0ff0000f          	fence
  a29d36:	8000 aa00 071f      	l.li	a4,0x8000aa00
  a29d3c:	10e7a023          	sw	a4,256(a5)
  a29d40:	0ff0000f          	fence
  a29d44:	4501                	li	a0,0
  a29d46:	8082                	ret

00a29d48 <drv_rom_cipher_symc_deinit>:
  a29d48:	441007b7          	lui	a5,0x44100
  a29d4c:	0207a023          	sw	zero,32(a5) # 44100020 <_gp_+0x436cb864>
  a29d50:	0ff0000f          	fence
  a29d54:	4501                	li	a0,0
  a29d56:	8082                	ret

00a29d58 <drv_rom_cipher_symc_decrypt>:
  a29d58:	8118                	push	{ra},-32
  a29d5a:	4305                	li	t1,1
  a29d5c:	c01a                	sw	t1,0(sp)
  a29d5e:	35bd                	jal	ra,a29bcc <inner_symc_crypto>
  a29d60:	8114                	popret	{ra},32

00a29d62 <crypto_get_cpu_type>:
  a29d62:	00a0 55b0 079f      	l.li	a5,0xa055b0
  a29d68:	01c7a303          	lw	t1,28(a5)
  a29d6c:	00030363          	beqz	t1,a29d72 <crypto_get_cpu_type+0x10>
  a29d70:	8302                	jr	t1
  a29d72:	4505                	li	a0,1
  a29d74:	8082                	ret

00a29d76 <crypto_sm_support>:
  a29d76:	4505                	li	a0,1
  a29d78:	8082                	ret

00a29d7a <crypto_get_value_by_index>:
  a29d7a:	57fd                	li	a5,-1
  a29d7c:	c105                	beqz	a0,a29d9c <crypto_get_value_by_index+0x22>
  a29d7e:	ce99                	beqz	a3,a29d9c <crypto_get_value_by_index+0x22>
  a29d80:	4781                	li	a5,0
  a29d82:	00b79463          	bne	a5,a1,a29d8a <crypto_get_value_by_index+0x10>
  a29d86:	57fd                	li	a5,-1
  a29d88:	a811                	j	a29d9c <crypto_get_value_by_index+0x22>
  a29d8a:	872a                	mv	a4,a0
  a29d8c:	0521                	addi	a0,a0,8
  a29d8e:	ff852803          	lw	a6,-8(a0)
  a29d92:	00c81763          	bne	a6,a2,a29da0 <crypto_get_value_by_index+0x26>
  a29d96:	435c                	lw	a5,4(a4)
  a29d98:	c29c                	sw	a5,0(a3)
  a29d9a:	4781                	li	a5,0
  a29d9c:	853e                	mv	a0,a5
  a29d9e:	8082                	ret
  a29da0:	0785                	addi	a5,a5,1
  a29da2:	b7c5                	j	a29d82 <crypto_get_value_by_index+0x8>

00a29da4 <drv_keyslot_create>:
  a29da4:	8158                	push	{ra,s0-s3},-48
  a29da6:	57fd                	li	a5,-1
  a29da8:	c63e                	sw	a5,12(sp)
  a29daa:	e119                	bnez	a0,a29db0 <drv_keyslot_create+0xc>
  a29dac:	557d                	li	a0,-1
  a29dae:	8154                	popret	{ra,s0-s3},48
  a29db0:	0205933b          	bnei	a1,2,a29dbc <drv_keyslot_create+0x18>
  a29db4:	00052023          	sw	zero,0(a0)
  a29db8:	4501                	li	a0,0
  a29dba:	bfd5                	j	a29dae <drv_keyslot_create+0xa>
  a29dbc:	c195                	beqz	a1,a29de0 <drv_keyslot_create+0x3c>
  a29dbe:	01f59bbb          	bnei	a1,1,a29dac <drv_keyslot_create+0x8>
  a29dc2:	4989                	li	s3,2
  a29dc4:	842e                	mv	s0,a1
  a29dc6:	892a                	mv	s2,a0
  a29dc8:	4481                	li	s1,0
  a29dca:	85a2                	mv	a1,s0
  a29dcc:	8526                	mv	a0,s1
  a29dce:	110010ef          	jal	ra,a2aede <hal_keyslot_lock>
  a29dd2:	c62a                	sw	a0,12(sp)
  a29dd4:	47b2                	lw	a5,12(sp)
  a29dd6:	c799                	beqz	a5,a29de4 <drv_keyslot_create+0x40>
  a29dd8:	0485                	addi	s1,s1,1
  a29dda:	fe9998e3          	bne	s3,s1,a29dca <drv_keyslot_create+0x26>
  a29dde:	b7f9                	j	a29dac <drv_keyslot_create+0x8>
  a29de0:	49a1                	li	s3,8
  a29de2:	b7cd                	j	a29dc4 <drv_keyslot_create+0x20>
  a29de4:	fd34f4e3          	bgeu	s1,s3,a29dac <drv_keyslot_create+0x8>
  a29de8:	550005b7          	lui	a1,0x55000
  a29dec:	2085a59b          	orshf	a1,a1,s0,sll,16
  a29df0:	8ccd                	or	s1,s1,a1
  a29df2:	00992023          	sw	s1,0(s2)
  a29df6:	4532                	lw	a0,12(sp)
  a29df8:	bf5d                	j	a29dae <drv_keyslot_create+0xa>

00a29dfa <drv_keyslot_destroy>:
  a29dfa:	c515                	beqz	a0,a29e26 <drv_keyslot_destroy+0x2c>
  a29dfc:	01855793          	srli	a5,a0,0x18
  a29e00:	550797bb          	bnei	a5,85,a29e1e <drv_keyslot_destroy+0x24>
  a29e04:	01055793          	srli	a5,a0,0x10
  a29e08:	0ff7f793          	andi	a5,a5,255
  a29e0c:	4705                	li	a4,1
  a29e0e:	00f76863          	bltu	a4,a5,a29e1e <drv_keyslot_destroy+0x24>
  a29e12:	01051693          	slli	a3,a0,0x10
  a29e16:	82c1                	srli	a3,a3,0x10
  a29e18:	e789                	bnez	a5,a29e22 <drv_keyslot_destroy+0x28>
  a29e1a:	0806e33b          	bltui	a3,8,a29e26 <drv_keyslot_destroy+0x2c>
  a29e1e:	557d                	li	a0,-1
  a29e20:	8082                	ret
  a29e22:	fed76ee3          	bltu	a4,a3,a29e1e <drv_keyslot_destroy+0x24>
  a29e26:	01055593          	srli	a1,a0,0x10
  a29e2a:	9d81                	uxtb	a1
  a29e2c:	9d21                	uxth	a0
  a29e2e:	14c0106f          	j	a2af7a <hal_keyslot_unlock>

00a29e32 <drv_klad_create>:
  a29e32:	e119                	bnez	a0,a29e38 <drv_klad_create+0x6>
  a29e34:	557d                	li	a0,-1
  a29e36:	8082                	ret
  a29e38:	8038                	push	{ra,s0-s1},-16
  a29e3a:	842a                	mv	s0,a0
  a29e3c:	00a05537          	lui	a0,0xa05
  a29e40:	5d450493          	addi	s1,a0,1492 # a055d4 <g_klad_ctx>
  a29e44:	02400693          	li	a3,36
  a29e48:	4601                	li	a2,0
  a29e4a:	02400593          	li	a1,36
  a29e4e:	5d450513          	addi	a0,a0,1492
  a29e52:	39b060ef          	jal	ra,a309ec <memset_s>
  a29e56:	4785                	li	a5,1
  a29e58:	02f48023          	sb	a5,32(s1)
  a29e5c:	2d3c 4b5a 079f      	l.li	a5,0x2d3c4b5a
  a29e62:	c01c                	sw	a5,0(s0)
  a29e64:	4501                	li	a0,0
  a29e66:	8034                	popret	{ra,s0-s1},16

00a29e68 <drv_klad_destroy>:
  a29e68:	8028                	push	{ra,s0},-16
  a29e6a:	2d3c 4b5a 079f      	l.li	a5,0x2d3c4b5a
  a29e70:	547d                	li	s0,-1
  a29e72:	02f51363          	bne	a0,a5,a29e98 <drv_klad_destroy+0x30>
  a29e76:	00a05537          	lui	a0,0xa05
  a29e7a:	5d450793          	addi	a5,a0,1492 # a055d4 <g_klad_ctx>
  a29e7e:	0207c783          	lbu	a5,32(a5)
  a29e82:	4401                	li	s0,0
  a29e84:	cb91                	beqz	a5,a29e98 <drv_klad_destroy+0x30>
  a29e86:	02400693          	li	a3,36
  a29e8a:	4601                	li	a2,0
  a29e8c:	02400593          	li	a1,36
  a29e90:	5d450513          	addi	a0,a0,1492
  a29e94:	359060ef          	jal	ra,a309ec <memset_s>
  a29e98:	8522                	mv	a0,s0
  a29e9a:	8024                	popret	{ra,s0},16

00a29e9c <drv_klad_attach>:
  a29e9c:	8148                	push	{ra,s0-s2},-32
  a29e9e:	57fd                	li	a5,-1
  a29ea0:	c63e                	sw	a5,12(sp)
  a29ea2:	2d3c 4b5a 079f      	l.li	a5,0x2d3c4b5a
  a29ea8:	04f51963          	bne	a0,a5,a29efa <drv_klad_attach+0x5e>
  a29eac:	00a05437          	lui	s0,0xa05
  a29eb0:	5d440793          	addi	a5,s0,1492 # a055d4 <g_klad_ctx>
  a29eb4:	0207c783          	lbu	a5,32(a5)
  a29eb8:	5d440413          	addi	s0,s0,1492
  a29ebc:	557d                	li	a0,-1
  a29ebe:	c385                	beqz	a5,a29ede <drv_klad_attach+0x42>
  a29ec0:	84ae                	mv	s1,a1
  a29ec2:	8932                	mv	s2,a2
  a29ec4:	0ff67593          	andi	a1,a2,255
  a29ec8:	0204863b          	beqi	s1,2,a29ee0 <drv_klad_attach+0x44>
  a29ecc:	85b2                	mv	a1,a2
  a29ece:	8526                	mv	a0,s1
  a29ed0:	358010ef          	jal	ra,a2b228 <hal_klad_set_key_addr>
  a29ed4:	c62a                	sw	a0,12(sp)
  a29ed6:	47b2                	lw	a5,12(sp)
  a29ed8:	458d                	li	a1,3
  a29eda:	c399                	beqz	a5,a29ee0 <drv_klad_attach+0x44>
  a29edc:	4532                	lw	a0,12(sp)
  a29ede:	8144                	popret	{ra,s0-s2},32
  a29ee0:	8526                	mv	a0,s1
  a29ee2:	2bc010ef          	jal	ra,a2b19e <hal_klad_set_key_dest_cfg>
  a29ee6:	c62a                	sw	a0,12(sp)
  a29ee8:	47b2                	lw	a5,12(sp)
  a29eea:	fbed                	bnez	a5,a29edc <drv_klad_attach+0x40>
  a29eec:	4785                	li	a5,1
  a29eee:	01242e23          	sw	s2,28(s0)
  a29ef2:	a044                	sb	s1,4(s0)
  a29ef4:	02f400a3          	sb	a5,33(s0)
  a29ef8:	b7d5                	j	a29edc <drv_klad_attach+0x40>
  a29efa:	557d                	li	a0,-1
  a29efc:	b7cd                	j	a29ede <drv_klad_attach+0x42>

00a29efe <drv_klad_detach>:
  a29efe:	2d3c 4b5a 079f      	l.li	a5,0x2d3c4b5a
  a29f04:	02f51a63          	bne	a0,a5,a29f38 <drv_klad_detach+0x3a>
  a29f08:	00a0 55d4 079f      	l.li	a5,0xa055d4
  a29f0e:	0207c703          	lbu	a4,32(a5)
  a29f12:	557d                	li	a0,-1
  a29f14:	c31d                	beqz	a4,a29f3a <drv_klad_detach+0x3c>
  a29f16:	23d8                	lbu	a4,4(a5)
  a29f18:	02b71163          	bne	a4,a1,a29f3a <drv_klad_detach+0x3c>
  a29f1c:	4fd8                	lw	a4,28(a5)
  a29f1e:	00c71e63          	bne	a4,a2,a29f3a <drv_klad_detach+0x3c>
  a29f22:	0217c703          	lbu	a4,33(a5)
  a29f26:	4501                	li	a0,0
  a29f28:	cb09                	beqz	a4,a29f3a <drv_klad_detach+0x3c>
  a29f2a:	020780a3          	sb	zero,33(a5)
  a29f2e:	0007ae23          	sw	zero,28(a5)
  a29f32:	00078223          	sb	zero,4(a5)
  a29f36:	8082                	ret
  a29f38:	557d                	li	a0,-1
  a29f3a:	8082                	ret

00a29f3c <drv_klad_set_attr>:
  a29f3c:	8138                	push	{ra,s0-s1},-32
  a29f3e:	57fd                	li	a5,-1
  a29f40:	c63e                	sw	a5,12(sp)
  a29f42:	e199                	bnez	a1,a29f48 <drv_klad_set_attr+0xc>
  a29f44:	557d                	li	a0,-1
  a29f46:	8134                	popret	{ra,s0-s1},32
  a29f48:	2d3c 4b5a 079f      	l.li	a5,0x2d3c4b5a
  a29f4e:	fef51be3          	bne	a0,a5,a29f44 <drv_klad_set_attr+0x8>
  a29f52:	00a0 55d4 049f      	l.li	s1,0xa055d4
  a29f58:	0204c783          	lbu	a5,32(s1)
  a29f5c:	d7e5                	beqz	a5,a29f44 <drv_klad_set_attr+0x8>
  a29f5e:	862e                	mv	a2,a1
  a29f60:	842e                	mv	s0,a1
  a29f62:	46d1                	li	a3,20
  a29f64:	45d1                	li	a1,20
  a29f66:	00848513          	addi	a0,s1,8
  a29f6a:	207060ef          	jal	ra,a30970 <memcpy_s>
  a29f6e:	c62a                	sw	a0,12(sp)
  a29f70:	47b2                	lw	a5,12(sp)
  a29f72:	fbe9                	bnez	a5,a29f44 <drv_klad_set_attr+0x8>
  a29f74:	2050                	lbu	a2,4(s0)
  a29f76:	304c                	lbu	a1,5(s0)
  a29f78:	2068                	lbu	a0,6(s0)
  a29f7a:	1ba010ef          	jal	ra,a2b134 <hal_klad_set_key_crypto_cfg>
  a29f7e:	c62a                	sw	a0,12(sp)
  a29f80:	47b2                	lw	a5,12(sp)
  a29f82:	c399                	beqz	a5,a29f88 <drv_klad_set_attr+0x4c>
  a29f84:	4532                	lw	a0,12(sp)
  a29f86:	b7c1                	j	a29f46 <drv_klad_set_attr+0xa>
  a29f88:	00740513          	addi	a0,s0,7
  a29f8c:	24a010ef          	jal	ra,a2b1d6 <hal_klad_set_key_secure_cfg>
  a29f90:	c62a                	sw	a0,12(sp)
  a29f92:	47b2                	lw	a5,12(sp)
  a29f94:	fbe5                	bnez	a5,a29f84 <drv_klad_set_attr+0x48>
  a29f96:	401c                	lw	a5,0(s0)
  a29f98:	c09c                	sw	a5,0(s1)
  a29f9a:	4785                	li	a5,1
  a29f9c:	02f48123          	sb	a5,34(s1)
  a29fa0:	b7d5                	j	a29f84 <drv_klad_set_attr+0x48>

00a29fa2 <drv_klad_set_effective_key>:
  a29fa2:	8238                	push	{ra,s0-s1},-48
  a29fa4:	57fd                	li	a5,-1
  a29fa6:	c43e                	sw	a5,8(sp)
  a29fa8:	c602                	sw	zero,12(sp)
  a29faa:	c802                	sw	zero,16(sp)
  a29fac:	ca02                	sw	zero,20(sp)
  a29fae:	cc02                	sw	zero,24(sp)
  a29fb0:	ce02                	sw	zero,28(sp)
  a29fb2:	e199                	bnez	a1,a29fb8 <drv_klad_set_effective_key+0x16>
  a29fb4:	557d                	li	a0,-1
  a29fb6:	a895                	j	a2a02a <drv_klad_set_effective_key+0x88>
  a29fb8:	41dc                	lw	a5,4(a1)
  a29fba:	dfed                	beqz	a5,a29fb4 <drv_klad_set_effective_key+0x12>
  a29fbc:	219c                	lbu	a5,0(a1)
  a29fbe:	842e                	mv	s0,a1
  a29fc0:	84aa                	mv	s1,a0
  a29fc2:	01078e3b          	beqi	a5,1,a29ffa <drv_klad_set_effective_key+0x58>
  a29fc6:	2d3c 4b5a 079f      	l.li	a5,0x2d3c4b5a
  a29fcc:	fef494e3          	bne	s1,a5,a29fb4 <drv_klad_set_effective_key+0x12>
  a29fd0:	00a054b7          	lui	s1,0xa05
  a29fd4:	5d448793          	addi	a5,s1,1492 # a055d4 <g_klad_ctx>
  a29fd8:	0207c703          	lbu	a4,32(a5)
  a29fdc:	5d448493          	addi	s1,s1,1492
  a29fe0:	db71                	beqz	a4,a29fb4 <drv_klad_set_effective_key+0x12>
  a29fe2:	0227c783          	lbu	a5,34(a5)
  a29fe6:	d7f9                	beqz	a5,a29fb4 <drv_klad_set_effective_key+0x12>
  a29fe8:	203c                	lbu	a5,2(s0)
  a29fea:	010782bb          	beqi	a5,1,a29ff4 <drv_klad_set_effective_key+0x52>
  a29fee:	cb91                	beqz	a5,a2a002 <drv_klad_set_effective_key+0x60>
  a29ff0:	02f7913b          	bnei	a5,2,a29fb4 <drv_klad_set_effective_key+0x12>
  a29ff4:	00f108a3          	sb	a5,17(sp)
  a29ff8:	a039                	j	a2a006 <drv_klad_set_effective_key+0x64>
  a29ffa:	4505                	li	a0,1
  a29ffc:	3bad                	jal	ra,a29d76 <crypto_sm_support>
  a29ffe:	f561                	bnez	a0,a29fc6 <drv_klad_set_effective_key+0x24>
  a2a000:	bf55                	j	a29fb4 <drv_klad_set_effective_key+0x12>
  a2a002:	000108a3          	sb	zero,17(sp)
  a2a006:	409c                	lw	a5,0(s1)
  a2a008:	c63e                	sw	a5,12(sp)
  a2a00a:	201c                	lbu	a5,0(s0)
  a2a00c:	00f10823          	sb	a5,16(sp)
  a2a010:	405c                	lw	a5,4(s0)
  a2a012:	ca3e                	sw	a5,20(sp)
  a2a014:	441c                	lw	a5,8(s0)
  a2a016:	cc3e                	sw	a5,24(sp)
  a2a018:	245c                	lbu	a5,12(s0)
  a2a01a:	00f10e23          	sb	a5,28(sp)
  a2a01e:	080010ef          	jal	ra,a2b09e <hal_klad_lock>
  a2a022:	c42a                	sw	a0,8(sp)
  a2a024:	47a2                	lw	a5,8(sp)
  a2a026:	c399                	beqz	a5,a2a02c <drv_klad_set_effective_key+0x8a>
  a2a028:	4522                	lw	a0,8(sp)
  a2a02a:	8234                	popret	{ra,s0-s1},48
  a2a02c:	4ab000ef          	jal	ra,a2acd6 <hal_rkp_lock>
  a2a030:	c42a                	sw	a0,8(sp)
  a2a032:	47a2                	lw	a5,8(sp)
  a2a034:	e385                	bnez	a5,a2a054 <drv_klad_set_effective_key+0xb2>
  a2a036:	0068                	addi	a0,sp,12
  a2a038:	531000ef          	jal	ra,a2ad68 <hal_rkp_kdf_hard_calculation>
  a2a03c:	c42a                	sw	a0,8(sp)
  a2a03e:	47a2                	lw	a5,8(sp)
  a2a040:	eb81                	bnez	a5,a2a050 <drv_klad_set_effective_key+0xae>
  a2a042:	20d0                	lbu	a2,4(s1)
  a2a044:	4532                	lw	a0,12(sp)
  a2a046:	85a2                	mv	a1,s0
  a2a048:	212010ef          	jal	ra,a2b25a <hal_klad_start_com_route>
  a2a04c:	c42a                	sw	a0,8(sp)
  a2a04e:	47a2                	lw	a5,8(sp)
  a2a050:	4c9000ef          	jal	ra,a2ad18 <hal_rkp_unlock>
  a2a054:	0a4010ef          	jal	ra,a2b0f8 <hal_klad_unlock>
  a2a058:	bfc1                	j	a2a028 <drv_klad_set_effective_key+0x86>

00a2a05a <drv_fapc_set_iv>:
  a2a05a:	8118                	push	{ra},-32
  a2a05c:	57fd                	li	a5,-1
  a2a05e:	c63e                	sw	a5,12(sp)
  a2a060:	34c010ef          	jal	ra,a2b3ac <hal_fapc_set_region_iv>
  a2a064:	c62a                	sw	a0,12(sp)
  a2a066:	4532                	lw	a0,12(sp)
  a2a068:	8114                	popret	{ra},32

00a2a06a <drv_fapc_set_config>:
  a2a06a:	8148                	push	{ra,s0-s2},-32
  a2a06c:	57fd                	li	a5,-1
  a2a06e:	c63e                	sw	a5,12(sp)
  a2a070:	0015b793          	seqz	a5,a1
  a2a074:	40f007b3          	neg	a5,a5
  a2a078:	c63e                	sw	a5,12(sp)
  a2a07a:	47b2                	lw	a5,12(sp)
  a2a07c:	c399                	beqz	a5,a2a082 <drv_fapc_set_config+0x18>
  a2a07e:	4532                	lw	a0,12(sp)
  a2a080:	8144                	popret	{ra,s0-s2},32
  a2a082:	4d84                	lw	s1,24(a1)
  a2a084:	41d0                	lw	a2,4(a1)
  a2a086:	842e                	mv	s0,a1
  a2a088:	418c                	lw	a1,0(a1)
  a2a08a:	892a                	mv	s2,a0
  a2a08c:	294010ef          	jal	ra,a2b320 <hal_fapc_set_region_addr>
  a2a090:	c62a                	sw	a0,12(sp)
  a2a092:	47b2                	lw	a5,12(sp)
  a2a094:	f7ed                	bnez	a5,a2a07e <drv_fapc_set_config+0x14>
  a2a096:	4850                	lw	a2,20(s0)
  a2a098:	480c                	lw	a1,16(s0)
  a2a09a:	854a                	mv	a0,s2
  a2a09c:	2a6010ef          	jal	ra,a2b342 <hal_fapc_set_region_permission>
  a2a0a0:	c62a                	sw	a0,12(sp)
  a2a0a2:	47b2                	lw	a5,12(sp)
  a2a0a4:	ffe9                	bnez	a5,a2a07e <drv_fapc_set_config+0x14>
  a2a0a6:	030494bb          	bnei	s1,3,a2a0b8 <drv_fapc_set_config+0x4e>
  a2a0aa:	440c                	lw	a1,8(s0)
  a2a0ac:	854a                	mv	a0,s2
  a2a0ae:	298010ef          	jal	ra,a2b346 <hal_fapc_set_region_mac_addr>
  a2a0b2:	c62a                	sw	a0,12(sp)
  a2a0b4:	47b2                	lw	a5,12(sp)
  a2a0b6:	f7e1                	bnez	a5,a2a07e <drv_fapc_set_config+0x14>
  a2a0b8:	85a6                	mv	a1,s1
  a2a0ba:	854a                	mv	a0,s2
  a2a0bc:	28e010ef          	jal	ra,a2b34a <hal_fapc_set_region_mode>
  a2a0c0:	c62a                	sw	a0,12(sp)
  a2a0c2:	47b2                	lw	a5,12(sp)
  a2a0c4:	ffcd                	bnez	a5,a2a07e <drv_fapc_set_config+0x14>
  a2a0c6:	2c4c                	lbu	a1,28(s0)
  a2a0c8:	854a                	mv	a0,s2
  a2a0ca:	2ba010ef          	jal	ra,a2b384 <hal_fapc_region_enable>
  a2a0ce:	c62a                	sw	a0,12(sp)
  a2a0d0:	47b2                	lw	a5,12(sp)
  a2a0d2:	f7d5                	bnez	a5,a2a07e <drv_fapc_set_config+0x14>
  a2a0d4:	444c                	lw	a1,12(s0)
  a2a0d6:	854a                	mv	a0,s2
  a2a0d8:	31c010ef          	jal	ra,a2b3f4 <hal_fapc_set_region_iv_start_addr>
  a2a0dc:	c62a                	sw	a0,12(sp)
  a2a0de:	47b2                	lw	a5,12(sp)
  a2a0e0:	ffd9                	bnez	a5,a2a07e <drv_fapc_set_config+0x14>
  a2a0e2:	3c5c                	lbu	a5,29(s0)
  a2a0e4:	dfc9                	beqz	a5,a2a07e <drv_fapc_set_config+0x14>
  a2a0e6:	854a                	mv	a0,s2
  a2a0e8:	2a0010ef          	jal	ra,a2b388 <hal_fapc_region_lock>
  a2a0ec:	c62a                	sw	a0,12(sp)
  a2a0ee:	47b2                	lw	a5,12(sp)
  a2a0f0:	b779                	j	a2a07e <drv_fapc_set_config+0x14>

00a2a0f2 <drv_fapc_set_bypass_config>:
  a2a0f2:	8228                	push	{ra,s0},-48
  a2a0f4:	57fd                	li	a5,-1
  a2a0f6:	c636                	sw	a3,12(sp)
  a2a0f8:	ce3e                	sw	a5,28(sp)
  a2a0fa:	842a                	mv	s0,a0
  a2a0fc:	224010ef          	jal	ra,a2b320 <hal_fapc_set_region_addr>
  a2a100:	ce2a                	sw	a0,28(sp)
  a2a102:	47f2                	lw	a5,28(sp)
  a2a104:	46b2                	lw	a3,12(sp)
  a2a106:	c399                	beqz	a5,a2a10c <drv_fapc_set_bypass_config+0x1a>
  a2a108:	4572                	lw	a0,28(sp)
  a2a10a:	8224                	popret	{ra,s0},48
  a2a10c:	def5                	beqz	a3,a2a108 <drv_fapc_set_bypass_config+0x16>
  a2a10e:	8522                	mv	a0,s0
  a2a110:	278010ef          	jal	ra,a2b388 <hal_fapc_region_lock>
  a2a114:	ce2a                	sw	a0,28(sp)
  a2a116:	47f2                	lw	a5,28(sp)
  a2a118:	bfc5                	j	a2a108 <drv_fapc_set_bypass_config+0x16>

00a2a11a <hal_hash_lock>:
  a2a11a:	0010 2fd4 031f      	l.li	t1,0x102fd4
  a2a120:	8302                	jr	t1

00a2a122 <hal_hash_unlock>:
  a2a122:	0010 2d8a 031f      	l.li	t1,0x102d8a
  a2a128:	8302                	jr	t1

00a2a12a <hal_cipher_hash_config>:
  a2a12a:	0010 2daa 031f      	l.li	t1,0x102daa
  a2a130:	8302                	jr	t1

00a2a132 <hal_cipher_hash_add_in_node>:
  a2a132:	0010 2eb4 031f      	l.li	t1,0x102eb4
  a2a138:	8302                	jr	t1

00a2a13a <hal_cipher_hash_start>:
  a2a13a:	0010 2f28 031f      	l.li	t1,0x102f28
  a2a140:	8302                	jr	t1

00a2a142 <hal_cipher_hash_wait_done>:
  a2a142:	0010 30fc 031f      	l.li	t1,0x1030fc
  a2a148:	8302                	jr	t1

00a2a14a <drv_rom_cipher_pke_bp256r_verify>:
  a2a14a:	0010 262a 031f      	l.li	t1,0x10262a
  a2a150:	8302                	jr	t1

00a2a152 <drv_rom_cipher_sha256>:
  a2a152:	8128                	push	{ra,s0},-32
  a2a154:	842a                	mv	s0,a0
  a2a156:	4505                	li	a0,1
  a2a158:	c62e                	sw	a1,12(sp)
  a2a15a:	c432                	sw	a2,8(sp)
  a2a15c:	c236                	sw	a3,4(sp)
  a2a15e:	3f75                	jal	ra,a2a11a <hal_hash_lock>
  a2a160:	4622                	lw	a2,8(sp)
  a2a162:	45b2                	lw	a1,12(sp)
  a2a164:	4712                	lw	a4,4(sp)
  a2a166:	86b2                	mv	a3,a2
  a2a168:	4785                	li	a5,1
  a2a16a:	862e                	mv	a2,a1
  a2a16c:	0116 9100 051f      	l.li	a0,0x1169100
  a2a172:	85a2                	mv	a1,s0
  a2a174:	fe6ff0ef          	jal	ra,a2995a <drv_rom_hash>
  a2a178:	842a                	mv	s0,a0
  a2a17a:	4505                	li	a0,1
  a2a17c:	375d                	jal	ra,a2a122 <hal_hash_unlock>
  a2a17e:	8522                	mv	a0,s0
  a2a180:	8124                	popret	{ra,s0},32

00a2a182 <uapi_systick_get_count>:
  a2a182:	8048                	push	{ra,s0-s2},-16
  a2a184:	f50ff0ef          	jal	ra,a298d4 <osal_irq_lock>
  a2a188:	00a0 55f8 079f      	l.li	a5,0xa055f8
  a2a18e:	239c                	lbu	a5,0(a5)
  a2a190:	eb81                	bnez	a5,a2a1a0 <uapi_systick_get_count+0x1e>
  a2a192:	f4aff0ef          	jal	ra,a298dc <osal_irq_restore>
  a2a196:	4401                	li	s0,0
  a2a198:	4481                	li	s1,0
  a2a19a:	8522                	mv	a0,s0
  a2a19c:	85a6                	mv	a1,s1
  a2a19e:	8044                	popret	{ra,s0-s2},16
  a2a1a0:	892a                	mv	s2,a0
  a2a1a2:	70d010ef          	jal	ra,a2c0ae <hal_systick_get_count>
  a2a1a6:	842a                	mv	s0,a0
  a2a1a8:	854a                	mv	a0,s2
  a2a1aa:	84ae                	mv	s1,a1
  a2a1ac:	f30ff0ef          	jal	ra,a298dc <osal_irq_restore>
  a2a1b0:	b7ed                	j	a2a19a <uapi_systick_get_count+0x18>

00a2a1b2 <uapi_systick_get_us>:
  a2a1b2:	8128                	push	{ra,s0},-32
  a2a1b4:	37f9                	jal	ra,a2a182 <uapi_systick_get_count>
  a2a1b6:	842a                	mv	s0,a0
  a2a1b8:	c62e                	sw	a1,12(sp)
  a2a1ba:	705010ef          	jal	ra,a2c0be <systick_clock_get>
  a2a1be:	45b2                	lw	a1,12(sp)
  a2a1c0:	000f 4240 079f      	l.li	a5,0xf4240
  a2a1c6:	02f43733          	mulhu	a4,s0,a5
  a2a1ca:	862a                	mv	a2,a0
  a2a1cc:	4681                	li	a3,0
  a2a1ce:	02f585b3          	mul	a1,a1,a5
  a2a1d2:	02f40533          	mul	a0,s0,a5
  a2a1d6:	95ba                	add	a1,a1,a4
  a2a1d8:	bc4fe0ef          	jal	ra,a2859c <__udivdi3>
  a2a1dc:	8124                	popret	{ra,s0},32

00a2a1de <uapi_tcxo_init>:
  a2a1de:	8048                	push	{ra,s0-s2},-16
  a2a1e0:	ef4ff0ef          	jal	ra,a298d4 <osal_irq_lock>
  a2a1e4:	00a0 55f9 091f      	l.li	s2,0xa055f9
  a2a1ea:	00094783          	lbu	a5,0(s2)
  a2a1ee:	c791                	beqz	a5,a2a1fa <uapi_tcxo_init+0x1c>
  a2a1f0:	eecff0ef          	jal	ra,a298dc <osal_irq_restore>
  a2a1f4:	4401                	li	s0,0
  a2a1f6:	8522                	mv	a0,s0
  a2a1f8:	8044                	popret	{ra,s0-s2},16
  a2a1fa:	84aa                	mv	s1,a0
  a2a1fc:	214010ef          	jal	ra,a2b410 <hal_tcxo_init>
  a2a200:	842a                	mv	s0,a0
  a2a202:	c509                	beqz	a0,a2a20c <uapi_tcxo_init+0x2e>
  a2a204:	8526                	mv	a0,s1
  a2a206:	ed6ff0ef          	jal	ra,a298dc <osal_irq_restore>
  a2a20a:	b7f5                	j	a2a1f6 <uapi_tcxo_init+0x18>
  a2a20c:	4785                	li	a5,1
  a2a20e:	00f90023          	sb	a5,0(s2)
  a2a212:	bfcd                	j	a2a204 <uapi_tcxo_init+0x26>

00a2a214 <uapi_tcxo_get_count>:
  a2a214:	8048                	push	{ra,s0-s2},-16
  a2a216:	ebeff0ef          	jal	ra,a298d4 <osal_irq_lock>
  a2a21a:	00a0 55f9 079f      	l.li	a5,0xa055f9
  a2a220:	239c                	lbu	a5,0(a5)
  a2a222:	eb81                	bnez	a5,a2a232 <uapi_tcxo_get_count+0x1e>
  a2a224:	eb8ff0ef          	jal	ra,a298dc <osal_irq_restore>
  a2a228:	4401                	li	s0,0
  a2a22a:	4481                	li	s1,0
  a2a22c:	8522                	mv	a0,s0
  a2a22e:	85a6                	mv	a1,s1
  a2a230:	8044                	popret	{ra,s0-s2},16
  a2a232:	892a                	mv	s2,a0
  a2a234:	208010ef          	jal	ra,a2b43c <hal_tcxo_get>
  a2a238:	842a                	mv	s0,a0
  a2a23a:	854a                	mv	a0,s2
  a2a23c:	84ae                	mv	s1,a1
  a2a23e:	e9eff0ef          	jal	ra,a298dc <osal_irq_restore>
  a2a242:	b7ed                	j	a2a22c <uapi_tcxo_get_count+0x18>

00a2a244 <uapi_tcxo_delay_ms>:
  a2a244:	00a0 55f9 079f      	l.li	a5,0xa055f9
  a2a24a:	239c                	lbu	a5,0(a5)
  a2a24c:	c3b1                	beqz	a5,a2a290 <uapi_tcxo_delay_ms+0x4c>
  a2a24e:	8048                	push	{ra,s0-s2},-16
  a2a250:	842a                	mv	s0,a0
  a2a252:	67f010ef          	jal	ra,a2c0d0 <tcxo_porting_ticks_per_usec_get>
  a2a256:	3e800793          	li	a5,1000
  a2a25a:	02f405b3          	mul	a1,s0,a5
  a2a25e:	02f43433          	mulhu	s0,s0,a5
  a2a262:	02a584b3          	mul	s1,a1,a0
  a2a266:	02a40433          	mul	s0,s0,a0
  a2a26a:	02a5b5b3          	mulhu	a1,a1,a0
  a2a26e:	942e                	add	s0,s0,a1
  a2a270:	3755                	jal	ra,a2a214 <uapi_tcxo_get_count>
  a2a272:	00a48933          	add	s2,s1,a0
  a2a276:	009934b3          	sltu	s1,s2,s1
  a2a27a:	95a2                	add	a1,a1,s0
  a2a27c:	94ae                	add	s1,s1,a1
  a2a27e:	3f59                	jal	ra,a2a214 <uapi_tcxo_get_count>
  a2a280:	fe95efe3          	bltu	a1,s1,a2a27e <uapi_tcxo_delay_ms+0x3a>
  a2a284:	00b49463          	bne	s1,a1,a2a28c <uapi_tcxo_delay_ms+0x48>
  a2a288:	ff256be3          	bltu	a0,s2,a2a27e <uapi_tcxo_delay_ms+0x3a>
  a2a28c:	4501                	li	a0,0
  a2a28e:	8044                	popret	{ra,s0-s2},16
  a2a290:	557d                	li	a0,-1
  a2a292:	8082                	ret

00a2a294 <uapi_tcxo_delay_us>:
  a2a294:	00a0 55f9 079f      	l.li	a5,0xa055f9
  a2a29a:	239c                	lbu	a5,0(a5)
  a2a29c:	cb8d                	beqz	a5,a2a2ce <uapi_tcxo_delay_us+0x3a>
  a2a29e:	8048                	push	{ra,s0-s2},-16
  a2a2a0:	842a                	mv	s0,a0
  a2a2a2:	62f010ef          	jal	ra,a2c0d0 <tcxo_porting_ticks_per_usec_get>
  a2a2a6:	02a404b3          	mul	s1,s0,a0
  a2a2aa:	02a43433          	mulhu	s0,s0,a0
  a2a2ae:	379d                	jal	ra,a2a214 <uapi_tcxo_get_count>
  a2a2b0:	00a48933          	add	s2,s1,a0
  a2a2b4:	009934b3          	sltu	s1,s2,s1
  a2a2b8:	942e                	add	s0,s0,a1
  a2a2ba:	9426                	add	s0,s0,s1
  a2a2bc:	3fa1                	jal	ra,a2a214 <uapi_tcxo_get_count>
  a2a2be:	fe85efe3          	bltu	a1,s0,a2a2bc <uapi_tcxo_delay_us+0x28>
  a2a2c2:	00b41463          	bne	s0,a1,a2a2ca <uapi_tcxo_delay_us+0x36>
  a2a2c6:	ff256be3          	bltu	a0,s2,a2a2bc <uapi_tcxo_delay_us+0x28>
  a2a2ca:	4501                	li	a0,0
  a2a2cc:	8044                	popret	{ra,s0-s2},16
  a2a2ce:	557d                	li	a0,-1
  a2a2d0:	8082                	ret

00a2a2d2 <uart_helper_invoke_current_fragment_callback>:
  a2a2d2:	00a0 5648 079f      	l.li	a5,0xa05648
  a2a2d8:	4ca7955b          	muliadd	a0,a5,a0,76
  a2a2dc:	411c                	lw	a5,0(a0)
  a2a2de:	0087a303          	lw	t1,8(a5)
  a2a2e2:	00030663          	beqz	t1,a2a2ee <uart_helper_invoke_current_fragment_callback+0x1c>
  a2a2e6:	43d0                	lw	a2,4(a5)
  a2a2e8:	47cc                	lw	a1,12(a5)
  a2a2ea:	4388                	lw	a0,0(a5)
  a2a2ec:	8302                	jr	t1
  a2a2ee:	8082                	ret

00a2a2f0 <uart_helper_move_to_next_fragment>:
  a2a2f0:	04c00793          	li	a5,76
  a2a2f4:	02f507b3          	mul	a5,a0,a5
  a2a2f8:	00a056b7          	lui	a3,0xa05
  a2a2fc:	64868713          	addi	a4,a3,1608 # a05648 <g_uart_tx_state_array>
  a2a300:	64868693          	addi	a3,a3,1608
  a2a304:	00f705b3          	add	a1,a4,a5
  a2a308:	4190                	lw	a2,0(a1)
  a2a30a:	07b1                	addi	a5,a5,12
  a2a30c:	97ba                	add	a5,a5,a4
  a2a30e:	0641                	addi	a2,a2,16
  a2a310:	04078713          	addi	a4,a5,64
  a2a314:	00e67b63          	bgeu	a2,a4,a2a32a <uart_helper_move_to_next_fragment+0x3a>
  a2a318:	c190                	sw	a2,0(a1)
  a2a31a:	4ca6955b          	muliadd	a0,a3,a0,76
  a2a31e:	251e                	lhu	a5,8(a0)
  a2a320:	00051523          	sh	zero,10(a0)
  a2a324:	17fd                	addi	a5,a5,-1
  a2a326:	a51e                	sh	a5,8(a0)
  a2a328:	8082                	ret
  a2a32a:	c19c                	sw	a5,0(a1)
  a2a32c:	b7fd                	j	a2a31a <uart_helper_move_to_next_fragment+0x2a>

00a2a32e <uart_helper_send_next_char>:
  a2a32e:	8038                	push	{ra,s0-s1},-16
  a2a330:	00a0 5648 041f      	l.li	s0,0xa05648
  a2a336:	4ca4145b          	muliadd	s0,s0,a0,76
  a2a33a:	4004                	lw	s1,0(s0)
  a2a33c:	243e                	lhu	a5,10(s0)
  a2a33e:	4605                	li	a2,1
  a2a340:	408c                	lw	a1,0(s1)
  a2a342:	95be                	add	a1,a1,a5
  a2a344:	1ae010ef          	jal	ra,a2b4f2 <hal_uart_write>
  a2a348:	242a                	lhu	a0,10(s0)
  a2a34a:	0505                	addi	a0,a0,1
  a2a34c:	9d21                	uxth	a0
  a2a34e:	a42a                	sh	a0,10(s0)
  a2a350:	44dc                	lw	a5,12(s1)
  a2a352:	00f53533          	sltu	a0,a0,a5
  a2a356:	00154513          	xori	a0,a0,1
  a2a35a:	8034                	popret	{ra,s0-s1},16

00a2a35c <uart_error_isr>:
  a2a35c:	8148                	push	{ra,s0-s2},-32
  a2a35e:	842a                	mv	s0,a0
  a2a360:	00f10613          	addi	a2,sp,15
  a2a364:	45a5                	li	a1,9
  a2a366:	00a0 5600 091f      	l.li	s2,0xa05600
  a2a36c:	00010723          	sb	zero,14(sp)
  a2a370:	000107a3          	sb	zero,15(sp)
  a2a374:	188914db          	muliadd	s1,s2,s0,24
  a2a378:	19e010ef          	jal	ra,a2b516 <hal_uart_ctrl>
  a2a37c:	00f14783          	lbu	a5,15(sp)
  a2a380:	cf89                	beqz	a5,a2a39a <uart_error_isr+0x3e>
  a2a382:	1889145b          	muliadd	s0,s2,s0,24
  a2a386:	284e                	lhu	a1,20(s0)
  a2a388:	c981                	beqz	a1,a2a398 <uart_error_isr+0x3c>
  a2a38a:	401c                	lw	a5,0(s0)
  a2a38c:	c791                	beqz	a5,a2a398 <uart_error_isr+0x3c>
  a2a38e:	4448                	lw	a0,12(s0)
  a2a390:	4605                	li	a2,1
  a2a392:	9782                	jalr	a5
  a2a394:	00041a23          	sh	zero,20(s0)
  a2a398:	8144                	popret	{ra,s0-s2},32
  a2a39a:	00e10593          	addi	a1,sp,14
  a2a39e:	4605                	li	a2,1
  a2a3a0:	8522                	mv	a0,s0
  a2a3a2:	162010ef          	jal	ra,a2b504 <hal_uart_read>
  a2a3a6:	28d6                	lhu	a3,20(s1)
  a2a3a8:	44dc                	lw	a5,12(s1)
  a2a3aa:	00e14703          	lbu	a4,14(sp)
  a2a3ae:	97b6                	add	a5,a5,a3
  a2a3b0:	a398                	sb	a4,0(a5)
  a2a3b2:	28ce                	lhu	a1,20(s1)
  a2a3b4:	289e                	lhu	a5,16(s1)
  a2a3b6:	0585                	addi	a1,a1,1 # 55000001 <_gp_+0x545cb845>
  a2a3b8:	9da1                	uxth	a1
  a2a3ba:	a8ce                	sh	a1,20(s1)
  a2a3bc:	00f5e963          	bltu	a1,a5,a2a3ce <uart_error_isr+0x72>
  a2a3c0:	409c                	lw	a5,0(s1)
  a2a3c2:	c781                	beqz	a5,a2a3ca <uart_error_isr+0x6e>
  a2a3c4:	44c8                	lw	a0,12(s1)
  a2a3c6:	4605                	li	a2,1
  a2a3c8:	9782                	jalr	a5
  a2a3ca:	00049a23          	sh	zero,20(s1)
  a2a3ce:	00f10613          	addi	a2,sp,15
  a2a3d2:	45a5                	li	a1,9
  a2a3d4:	8522                	mv	a0,s0
  a2a3d6:	140010ef          	jal	ra,a2b516 <hal_uart_ctrl>
  a2a3da:	b74d                	j	a2a37c <uart_error_isr+0x20>

00a2a3dc <uart_evt_callback>:
  a2a3dc:	8158                	push	{ra,s0-s3},-48
  a2a3de:	15fd                	addi	a1,a1,-1
  a2a3e0:	0ff5f793          	andi	a5,a1,255
  a2a3e4:	0567fabb          	bgeui	a5,5,a2a58e <uart_evt_callback+0x1b2>
  a2a3e8:	00a325b7          	lui	a1,0xa32
  a2a3ec:	65058593          	addi	a1,a1,1616 # a32650 <g_sm3_ival+0x20>
  a2a3f0:	04f5859b          	addshf	a1,a1,a5,sll,2
  a2a3f4:	419c                	lw	a5,0(a1)
  a2a3f6:	842a                	mv	s0,a0
  a2a3f8:	8782                	jr	a5
  a2a3fa:	00a0 5648 049f      	l.li	s1,0xa05648
  a2a400:	000107a3          	sb	zero,15(sp)
  a2a404:	4ca494db          	muliadd	s1,s1,a0,76
  a2a408:	249e                	lhu	a5,8(s1)
  a2a40a:	eb81                	bnez	a5,a2a41a <uart_evt_callback+0x3e>
  a2a40c:	4601                	li	a2,0
  a2a40e:	4589                	li	a1,2
  a2a410:	8522                	mv	a0,s0
  a2a412:	104010ef          	jal	ra,a2b516 <hal_uart_ctrl>
  a2a416:	4501                	li	a0,0
  a2a418:	8154                	popret	{ra,s0-s3},48
  a2a41a:	00f10613          	addi	a2,sp,15
  a2a41e:	459d                	li	a1,7
  a2a420:	8522                	mv	a0,s0
  a2a422:	0f4010ef          	jal	ra,a2b516 <hal_uart_ctrl>
  a2a426:	00f14783          	lbu	a5,15(sp)
  a2a42a:	f7f5                	bnez	a5,a2a416 <uart_evt_callback+0x3a>
  a2a42c:	8522                	mv	a0,s0
  a2a42e:	3701                	jal	ra,a2a32e <uart_helper_send_next_char>
  a2a430:	d56d                	beqz	a0,a2a41a <uart_evt_callback+0x3e>
  a2a432:	8522                	mv	a0,s0
  a2a434:	3d79                	jal	ra,a2a2d2 <uart_helper_invoke_current_fragment_callback>
  a2a436:	8522                	mv	a0,s0
  a2a438:	3d65                	jal	ra,a2a2f0 <uart_helper_move_to_next_fragment>
  a2a43a:	b7f9                	j	a2a408 <uart_evt_callback+0x2c>
  a2a43c:	00f10613          	addi	a2,sp,15
  a2a440:	45a5                	li	a1,9
  a2a442:	00a0 5600 091f      	l.li	s2,0xa05600
  a2a448:	00010723          	sb	zero,14(sp)
  a2a44c:	000107a3          	sb	zero,15(sp)
  a2a450:	4981                	li	s3,0
  a2a452:	0c4010ef          	jal	ra,a2b516 <hal_uart_ctrl>
  a2a456:	188914db          	muliadd	s1,s2,s0,24
  a2a45a:	00f14783          	lbu	a5,15(sp)
  a2a45e:	c78d                	beqz	a5,a2a488 <uart_evt_callback+0xac>
  a2a460:	188917db          	muliadd	a5,s2,s0,24
  a2a464:	2bce                	lhu	a1,20(a5)
  a2a466:	d9c5                	beqz	a1,a2a416 <uart_evt_callback+0x3a>
  a2a468:	2bf8                	lbu	a4,22(a5)
  a2a46a:	8b09                	andi	a4,a4,2
  a2a46c:	d74d                	beqz	a4,a2a416 <uart_evt_callback+0x3a>
  a2a46e:	2bba                	lhu	a4,18(a5)
  a2a470:	fae9e3e3          	bltu	s3,a4,a2a416 <uart_evt_callback+0x3a>
  a2a474:	4398                	lw	a4,0(a5)
  a2a476:	c701                	beqz	a4,a2a47e <uart_evt_callback+0xa2>
  a2a478:	47c8                	lw	a0,12(a5)
  a2a47a:	4601                	li	a2,0
  a2a47c:	9702                	jalr	a4
  a2a47e:	1889145b          	muliadd	s0,s2,s0,24
  a2a482:	00041a23          	sh	zero,20(s0)
  a2a486:	bf41                	j	a2a416 <uart_evt_callback+0x3a>
  a2a488:	4605                	li	a2,1
  a2a48a:	00e10593          	addi	a1,sp,14
  a2a48e:	8522                	mv	a0,s0
  a2a490:	074010ef          	jal	ra,a2b504 <hal_uart_read>
  a2a494:	409c                	lw	a5,0(s1)
  a2a496:	0985                	addi	s3,s3,1 # ffff0001 <_gp_+0xff5bb845>
  a2a498:	09c2                	slli	s3,s3,0x10
  a2a49a:	0109d993          	srli	s3,s3,0x10
  a2a49e:	eb81                	bnez	a5,a2a4ae <uart_evt_callback+0xd2>
  a2a4a0:	00f10613          	addi	a2,sp,15
  a2a4a4:	45a5                	li	a1,9
  a2a4a6:	8522                	mv	a0,s0
  a2a4a8:	06e010ef          	jal	ra,a2b516 <hal_uart_ctrl>
  a2a4ac:	b77d                	j	a2a45a <uart_evt_callback+0x7e>
  a2a4ae:	28d6                	lhu	a3,20(s1)
  a2a4b0:	44dc                	lw	a5,12(s1)
  a2a4b2:	00e14703          	lbu	a4,14(sp)
  a2a4b6:	97b6                	add	a5,a5,a3
  a2a4b8:	a398                	sb	a4,0(a5)
  a2a4ba:	28ce                	lhu	a1,20(s1)
  a2a4bc:	289e                	lhu	a5,16(s1)
  a2a4be:	0585                	addi	a1,a1,1
  a2a4c0:	9da1                	uxth	a1
  a2a4c2:	a8ce                	sh	a1,20(s1)
  a2a4c4:	fcf5eee3          	bltu	a1,a5,a2a4a0 <uart_evt_callback+0xc4>
  a2a4c8:	409c                	lw	a5,0(s1)
  a2a4ca:	44c8                	lw	a0,12(s1)
  a2a4cc:	4601                	li	a2,0
  a2a4ce:	9782                	jalr	a5
  a2a4d0:	00049a23          	sh	zero,20(s1)
  a2a4d4:	b7f1                	j	a2a4a0 <uart_evt_callback+0xc4>
  a2a4d6:	00f10613          	addi	a2,sp,15
  a2a4da:	45a5                	li	a1,9
  a2a4dc:	00a0 5600 091f      	l.li	s2,0xa05600
  a2a4e2:	00010723          	sb	zero,14(sp)
  a2a4e6:	000107a3          	sb	zero,15(sp)
  a2a4ea:	4981                	li	s3,0
  a2a4ec:	02a010ef          	jal	ra,a2b516 <hal_uart_ctrl>
  a2a4f0:	188914db          	muliadd	s1,s2,s0,24
  a2a4f4:	00f14783          	lbu	a5,15(sp)
  a2a4f8:	cb85                	beqz	a5,a2a528 <uart_evt_callback+0x14c>
  a2a4fa:	1889175b          	muliadd	a4,s2,s0,24
  a2a4fe:	2b4e                	lhu	a1,20(a4)
  a2a500:	f0058be3          	beqz	a1,a2a416 <uart_evt_callback+0x3a>
  a2a504:	2b7c                	lbu	a5,22(a4)
  a2a506:	0017f693          	andi	a3,a5,1
  a2a50a:	e699                	bnez	a3,a2a518 <uart_evt_callback+0x13c>
  a2a50c:	8b89                	andi	a5,a5,2
  a2a50e:	f00784e3          	beqz	a5,a2a416 <uart_evt_callback+0x3a>
  a2a512:	2b3e                	lhu	a5,18(a4)
  a2a514:	f0f9e1e3          	bltu	s3,a5,a2a416 <uart_evt_callback+0x3a>
  a2a518:	1889175b          	muliadd	a4,s2,s0,24
  a2a51c:	431c                	lw	a5,0(a4)
  a2a51e:	d3a5                	beqz	a5,a2a47e <uart_evt_callback+0xa2>
  a2a520:	4748                	lw	a0,12(a4)
  a2a522:	4601                	li	a2,0
  a2a524:	9782                	jalr	a5
  a2a526:	bfa1                	j	a2a47e <uart_evt_callback+0xa2>
  a2a528:	4605                	li	a2,1
  a2a52a:	00e10593          	addi	a1,sp,14
  a2a52e:	8522                	mv	a0,s0
  a2a530:	7d5000ef          	jal	ra,a2b504 <hal_uart_read>
  a2a534:	409c                	lw	a5,0(s1)
  a2a536:	0985                	addi	s3,s3,1
  a2a538:	09c2                	slli	s3,s3,0x10
  a2a53a:	0109d993          	srli	s3,s3,0x10
  a2a53e:	eb81                	bnez	a5,a2a54e <uart_evt_callback+0x172>
  a2a540:	00f10613          	addi	a2,sp,15
  a2a544:	45a5                	li	a1,9
  a2a546:	8522                	mv	a0,s0
  a2a548:	7cf000ef          	jal	ra,a2b516 <hal_uart_ctrl>
  a2a54c:	b765                	j	a2a4f4 <uart_evt_callback+0x118>
  a2a54e:	28d6                	lhu	a3,20(s1)
  a2a550:	44dc                	lw	a5,12(s1)
  a2a552:	00e14703          	lbu	a4,14(sp)
  a2a556:	97b6                	add	a5,a5,a3
  a2a558:	a398                	sb	a4,0(a5)
  a2a55a:	28ce                	lhu	a1,20(s1)
  a2a55c:	289e                	lhu	a5,16(s1)
  a2a55e:	0585                	addi	a1,a1,1
  a2a560:	9da1                	uxth	a1
  a2a562:	a8ce                	sh	a1,20(s1)
  a2a564:	fcf5eee3          	bltu	a1,a5,a2a540 <uart_evt_callback+0x164>
  a2a568:	409c                	lw	a5,0(s1)
  a2a56a:	c781                	beqz	a5,a2a572 <uart_evt_callback+0x196>
  a2a56c:	44c8                	lw	a0,12(s1)
  a2a56e:	4601                	li	a2,0
  a2a570:	9782                	jalr	a5
  a2a572:	00049a23          	sh	zero,20(s1)
  a2a576:	b7e9                	j	a2a540 <uart_evt_callback+0x164>
  a2a578:	00a0 5600 079f      	l.li	a5,0xa05600
  a2a57e:	18a797db          	muliadd	a5,a5,a0,24
  a2a582:	43dc                	lw	a5,4(a5)
  a2a584:	c781                	beqz	a5,a2a58c <uart_evt_callback+0x1b0>
  a2a586:	4581                	li	a1,0
  a2a588:	4501                	li	a0,0
  a2a58a:	9782                	jalr	a5
  a2a58c:	8522                	mv	a0,s0
  a2a58e:	33f9                	jal	ra,a2a35c <uart_error_isr>
  a2a590:	b559                	j	a2a416 <uart_evt_callback+0x3a>
  a2a592:	00a0 5600 079f      	l.li	a5,0xa05600
  a2a598:	18a797db          	muliadd	a5,a5,a0,24
  a2a59c:	479c                	lw	a5,8(a5)
  a2a59e:	b7dd                	j	a2a584 <uart_evt_callback+0x1a8>

00a2a5a0 <uapi_uart_init>:
  a2a5a0:	8148                	push	{ra,s0-s2},-32
  a2a5a2:	4789                	li	a5,2
  a2a5a4:	0aa7e563          	bltu	a5,a0,a2a64e <uapi_uart_init+0xae>
  a2a5a8:	c1dd                	beqz	a1,a2a64e <uapi_uart_init+0xae>
  a2a5aa:	0015c803          	lbu	a6,1(a1)
  a2a5ae:	07200693          	li	a3,114
  a2a5b2:	0906ee63          	bltu	a3,a6,a2a64e <uapi_uart_init+0xae>
  a2a5b6:	0005c803          	lbu	a6,0(a1)
  a2a5ba:	0906ea63          	bltu	a3,a6,a2a64e <uapi_uart_init+0xae>
  a2a5be:	ca41                	beqz	a2,a2a64e <uapi_uart_init+0xae>
  a2a5c0:	2254                	lbu	a3,4(a2)
  a2a5c2:	0426f33b          	bgeui	a3,4,a2a64e <uapi_uart_init+0xae>
  a2a5c6:	2274                	lbu	a3,6(a2)
  a2a5c8:	08d7e363          	bltu	a5,a3,a2a64e <uapi_uart_init+0xae>
  a2a5cc:	325c                	lbu	a5,5(a2)
  a2a5ce:	0227f03b          	bgeui	a5,2,a2a64e <uapi_uart_init+0xae>
  a2a5d2:	00a05937          	lui	s2,0xa05
  a2a5d6:	5fc90793          	addi	a5,s2,1532 # a055fc <g_uart_inited>
  a2a5da:	97aa                	add	a5,a5,a0
  a2a5dc:	239c                	lbu	a5,0(a5)
  a2a5de:	84aa                	mv	s1,a0
  a2a5e0:	5fc90913          	addi	s2,s2,1532
  a2a5e4:	4401                	li	s0,0
  a2a5e6:	e3b5                	bnez	a5,a2a64a <uapi_uart_init+0xaa>
  a2a5e8:	843a                	mv	s0,a4
  a2a5ea:	c632                	sw	a2,12(sp)
  a2a5ec:	c42e                	sw	a1,8(sp)
  a2a5ee:	243010ef          	jal	ra,a2c030 <uart_port_config_pinmux>
  a2a5f2:	c035                	beqz	s0,a2a656 <uapi_uart_init+0xb6>
  a2a5f4:	4018                	lw	a4,0(s0)
  a2a5f6:	c325                	beqz	a4,a2a656 <uapi_uart_init+0xb6>
  a2a5f8:	405c                	lw	a5,4(s0)
  a2a5fa:	cfb1                	beqz	a5,a2a656 <uapi_uart_init+0xb6>
  a2a5fc:	04c00593          	li	a1,76
  a2a600:	02b485b3          	mul	a1,s1,a1
  a2a604:	00a0 5600 079f      	l.li	a5,0xa05600
  a2a60a:	189797db          	muliadd	a5,a5,s1,24
  a2a60e:	c7d8                	sw	a4,12(a5)
  a2a610:	4058                	lw	a4,4(s0)
  a2a612:	46b2                	lw	a3,12(sp)
  a2a614:	4622                	lw	a2,8(sp)
  a2a616:	ab9a                	sh	a4,16(a5)
  a2a618:	00a0 5648 079f      	l.li	a5,0xa05648
  a2a61e:	8526                	mv	a0,s1
  a2a620:	00c58713          	addi	a4,a1,12
  a2a624:	973e                	add	a4,a4,a5
  a2a626:	97ae                	add	a5,a5,a1
  a2a628:	c398                	sw	a4,0(a5)
  a2a62a:	c3d8                	sw	a4,4(a5)
  a2a62c:	00a2 a3dc 059f      	l.li	a1,0xa2a3dc
  a2a632:	4711                	li	a4,4
  a2a634:	685000ef          	jal	ra,a2b4b8 <hal_uart_init>
  a2a638:	842a                	mv	s0,a0
  a2a63a:	e901                	bnez	a0,a2a64a <uapi_uart_init+0xaa>
  a2a63c:	9926                	add	s2,s2,s1
  a2a63e:	4785                	li	a5,1
  a2a640:	8526                	mv	a0,s1
  a2a642:	00f90023          	sb	a5,0(s2)
  a2a646:	1fb010ef          	jal	ra,a2c040 <uart_port_register_irq>
  a2a64a:	8522                	mv	a0,s0
  a2a64c:	8144                	popret	{ra,s0-s2},32
  a2a64e:	80000437          	lui	s0,0x80000
  a2a652:	0405                	addi	s0,s0,1 # 80000001 <_gp_+0x7f5cb845>
  a2a654:	bfdd                	j	a2a64a <uapi_uart_init+0xaa>
  a2a656:	8000 1044 041f      	l.li	s0,0x80001044
  a2a65c:	b7fd                	j	a2a64a <uapi_uart_init+0xaa>

00a2a65e <uapi_uart_write>:
  a2a65e:	8178                	push	{ra,s0-s5},-48
  a2a660:	000107a3          	sb	zero,15(sp)
  a2a664:	0315773b          	bgeui	a0,3,a2a6c0 <uapi_uart_write+0x62>
  a2a668:	cda1                	beqz	a1,a2a6c0 <uapi_uart_write+0x62>
  a2a66a:	ca39                	beqz	a2,a2a6c0 <uapi_uart_write+0x62>
  a2a66c:	00a0 55fc 079f      	l.li	a5,0xa055fc
  a2a672:	97aa                	add	a5,a5,a0
  a2a674:	239c                	lbu	a5,0(a5)
  a2a676:	84aa                	mv	s1,a0
  a2a678:	cba1                	beqz	a5,a2a6c8 <uapi_uart_write+0x6a>
  a2a67a:	89ae                	mv	s3,a1
  a2a67c:	8932                	mv	s2,a2
  a2a67e:	227010ef          	jal	ra,a2c0a4 <uart_porting_lock>
  a2a682:	8aaa                	mv	s5,a0
  a2a684:	994e                	add	s2,s2,s3
  a2a686:	8a4e                	mv	s4,s3
  a2a688:	413a0433          	sub	s0,s4,s3
  a2a68c:	012a1863          	bne	s4,s2,a2a69c <uapi_uart_write+0x3e>
  a2a690:	85d6                	mv	a1,s5
  a2a692:	8526                	mv	a0,s1
  a2a694:	215010ef          	jal	ra,a2c0a8 <uart_porting_unlock>
  a2a698:	8522                	mv	a0,s0
  a2a69a:	8174                	popret	{ra,s0-s5},48
  a2a69c:	00f10613          	addi	a2,sp,15
  a2a6a0:	459d                	li	a1,7
  a2a6a2:	8526                	mv	a0,s1
  a2a6a4:	673000ef          	jal	ra,a2b516 <hal_uart_ctrl>
  a2a6a8:	00f14783          	lbu	a5,15(sp)
  a2a6ac:	f3e5                	bnez	a5,a2a68c <uapi_uart_write+0x2e>
  a2a6ae:	85d2                	mv	a1,s4
  a2a6b0:	001a0413          	addi	s0,s4,1
  a2a6b4:	4605                	li	a2,1
  a2a6b6:	8526                	mv	a0,s1
  a2a6b8:	63b000ef          	jal	ra,a2b4f2 <hal_uart_write>
  a2a6bc:	8a22                	mv	s4,s0
  a2a6be:	b7e9                	j	a2a688 <uapi_uart_write+0x2a>
  a2a6c0:	80000437          	lui	s0,0x80000
  a2a6c4:	0405                	addi	s0,s0,1 # 80000001 <_gp_+0x7f5cb845>
  a2a6c6:	bfc9                	j	a2a698 <uapi_uart_write+0x3a>
  a2a6c8:	8000 1040 041f      	l.li	s0,0x80001040
  a2a6ce:	b7e9                	j	a2a698 <uapi_uart_write+0x3a>

00a2a6d0 <uapi_watchdog_init>:
  a2a6d0:	8058                	push	{ra,s0-s3},-32
  a2a6d2:	89aa                	mv	s3,a0
  a2a6d4:	211010ef          	jal	ra,a2c0e4 <watchdog_port_register_hal_funcs>
  a2a6d8:	21d010ef          	jal	ra,a2c0f4 <watchdog_port_register_irq>
  a2a6dc:	9f8ff0ef          	jal	ra,a298d4 <osal_irq_lock>
  a2a6e0:	84aa                	mv	s1,a0
  a2a6e2:	26e010ef          	jal	ra,a2b950 <hal_watchdog_get_funcs>
  a2a6e6:	411c                	lw	a5,0(a0)
  a2a6e8:	00a0 572c 091f      	l.li	s2,0xa0572c
  a2a6ee:	00a92023          	sw	a0,0(s2)
  a2a6f2:	9782                	jalr	a5
  a2a6f4:	c519                	beqz	a0,a2a702 <uapi_watchdog_init+0x32>
  a2a6f6:	842a                	mv	s0,a0
  a2a6f8:	8526                	mv	a0,s1
  a2a6fa:	9e2ff0ef          	jal	ra,a298dc <osal_irq_restore>
  a2a6fe:	8522                	mv	a0,s0
  a2a700:	8054                	popret	{ra,s0-s3},32
  a2a702:	00092783          	lw	a5,0(s2)
  a2a706:	854e                	mv	a0,s3
  a2a708:	479c                	lw	a5,8(a5)
  a2a70a:	9782                	jalr	a5
  a2a70c:	842a                	mv	s0,a0
  a2a70e:	8526                	mv	a0,s1
  a2a710:	9ccff0ef          	jal	ra,a298dc <osal_irq_restore>
  a2a714:	f46d                	bnez	s0,a2a6fe <uapi_watchdog_init+0x2e>
  a2a716:	00a0 5731 079f      	l.li	a5,0xa05731
  a2a71c:	4705                	li	a4,1
  a2a71e:	a398                	sb	a4,0(a5)
  a2a720:	bff9                	j	a2a6fe <uapi_watchdog_init+0x2e>

00a2a722 <uapi_watchdog_enable>:
  a2a722:	00a0 5731 079f      	l.li	a5,0xa05731
  a2a728:	239c                	lbu	a5,0(a5)
  a2a72a:	cb9d                	beqz	a5,a2a760 <uapi_watchdog_enable+0x3e>
  a2a72c:	8048                	push	{ra,s0-s2},-16
  a2a72e:	4485                	li	s1,1
  a2a730:	57fd                	li	a5,-1
  a2a732:	02a4e563          	bltu	s1,a0,a2a75c <uapi_watchdog_enable+0x3a>
  a2a736:	842a                	mv	s0,a0
  a2a738:	99cff0ef          	jal	ra,a298d4 <osal_irq_lock>
  a2a73c:	00a0 572c 079f      	l.li	a5,0xa0572c
  a2a742:	439c                	lw	a5,0(a5)
  a2a744:	892a                	mv	s2,a0
  a2a746:	8522                	mv	a0,s0
  a2a748:	4b9c                	lw	a5,16(a5)
  a2a74a:	9782                	jalr	a5
  a2a74c:	854a                	mv	a0,s2
  a2a74e:	98eff0ef          	jal	ra,a298dc <osal_irq_restore>
  a2a752:	00a0 5730 079f      	l.li	a5,0xa05730
  a2a758:	a384                	sb	s1,0(a5)
  a2a75a:	4781                	li	a5,0
  a2a75c:	853e                	mv	a0,a5
  a2a75e:	8044                	popret	{ra,s0-s2},16
  a2a760:	57fd                	li	a5,-1
  a2a762:	853e                	mv	a0,a5
  a2a764:	8082                	ret

00a2a766 <uapi_watchdog_disable>:
  a2a766:	00a0 5731 079f      	l.li	a5,0xa05731
  a2a76c:	239c                	lbu	a5,0(a5)
  a2a76e:	e399                	bnez	a5,a2a774 <uapi_watchdog_disable+0xe>
  a2a770:	557d                	li	a0,-1
  a2a772:	8082                	ret
  a2a774:	8118                	push	{ra},-32
  a2a776:	95eff0ef          	jal	ra,a298d4 <osal_irq_lock>
  a2a77a:	00a0 572c 079f      	l.li	a5,0xa0572c
  a2a780:	439c                	lw	a5,0(a5)
  a2a782:	c62a                	sw	a0,12(sp)
  a2a784:	4bdc                	lw	a5,20(a5)
  a2a786:	9782                	jalr	a5
  a2a788:	4532                	lw	a0,12(sp)
  a2a78a:	952ff0ef          	jal	ra,a298dc <osal_irq_restore>
  a2a78e:	00a0 5730 079f      	l.li	a5,0xa05730
  a2a794:	00078023          	sb	zero,0(a5)
  a2a798:	4501                	li	a0,0
  a2a79a:	8114                	popret	{ra},32

00a2a79c <uapi_watchdog_deinit>:
  a2a79c:	00a057b7          	lui	a5,0xa05
  a2a7a0:	7317c703          	lbu	a4,1841(a5) # a05731 <g_watchdog_inited>
  a2a7a4:	c71d                	beqz	a4,a2a7d2 <uapi_watchdog_deinit+0x36>
  a2a7a6:	8028                	push	{ra,s0},-16
  a2a7a8:	73178413          	addi	s0,a5,1841
  a2a7ac:	00a0 5730 079f      	l.li	a5,0xa05730
  a2a7b2:	239c                	lbu	a5,0(a5)
  a2a7b4:	c391                	beqz	a5,a2a7b8 <uapi_watchdog_deinit+0x1c>
  a2a7b6:	3f45                	jal	ra,a2a766 <uapi_watchdog_disable>
  a2a7b8:	00a0 572c 079f      	l.li	a5,0xa0572c
  a2a7be:	439c                	lw	a5,0(a5)
  a2a7c0:	c399                	beqz	a5,a2a7c6 <uapi_watchdog_deinit+0x2a>
  a2a7c2:	43dc                	lw	a5,4(a5)
  a2a7c4:	9782                	jalr	a5
  a2a7c6:	12b010ef          	jal	ra,a2c0f0 <watchdog_port_unregister_hal_funcs>
  a2a7ca:	4501                	li	a0,0
  a2a7cc:	00040023          	sb	zero,0(s0)
  a2a7d0:	8024                	popret	{ra,s0},16
  a2a7d2:	4501                	li	a0,0
  a2a7d4:	8082                	ret

00a2a7d6 <uapi_watchdog_kick>:
  a2a7d6:	00a0 5730 079f      	l.li	a5,0xa05730
  a2a7dc:	239c                	lbu	a5,0(a5)
  a2a7de:	e399                	bnez	a5,a2a7e4 <uapi_watchdog_kick+0xe>
  a2a7e0:	557d                	li	a0,-1
  a2a7e2:	8082                	ret
  a2a7e4:	8118                	push	{ra},-32
  a2a7e6:	8eeff0ef          	jal	ra,a298d4 <osal_irq_lock>
  a2a7ea:	00a0 572c 079f      	l.li	a5,0xa0572c
  a2a7f0:	439c                	lw	a5,0(a5)
  a2a7f2:	c62a                	sw	a0,12(sp)
  a2a7f4:	4f9c                	lw	a5,24(a5)
  a2a7f6:	9782                	jalr	a5
  a2a7f8:	4532                	lw	a0,12(sp)
  a2a7fa:	8e2ff0ef          	jal	ra,a298dc <osal_irq_restore>
  a2a7fe:	4501                	li	a0,0
  a2a800:	8114                	popret	{ra},32

00a2a802 <uapi_efuse_init>:
  a2a802:	8018                	push	{ra},-16
  a2a804:	0b4020ef          	jal	ra,a2c8b8 <efuse_port_register_hal_funcs>
  a2a808:	28c1                	jal	ra,a2a8d8 <hal_efuse_get_funcs>
  a2a80a:	00052303          	lw	t1,0(a0)
  a2a80e:	8010                	pop	{ra},16
  a2a810:	8302                	jr	t1

00a2a812 <uapi_efuse_read_bit>:
  a2a812:	8168                	push	{ra,s0-s4},-48
  a2a814:	000107a3          	sb	zero,15(sp)
  a2a818:	547d                	li	s0,-1
  a2a81a:	0ff00793          	li	a5,255
  a2a81e:	02b7ee63          	bltu	a5,a1,a2a85a <uapi_efuse_read_bit+0x48>
  a2a822:	cd05                	beqz	a0,a2a85a <uapi_efuse_read_bit+0x48>
  a2a824:	08067dbb          	bgeui	a2,8,a2a85a <uapi_efuse_read_bit+0x48>
  a2a828:	842e                	mv	s0,a1
  a2a82a:	8932                	mv	s2,a2
  a2a82c:	84aa                	mv	s1,a0
  a2a82e:	206d                	jal	ra,a2a8d8 <hal_efuse_get_funcs>
  a2a830:	8a2a                	mv	s4,a0
  a2a832:	8a2ff0ef          	jal	ra,a298d4 <osal_irq_lock>
  a2a836:	010a2783          	lw	a5,16(s4)
  a2a83a:	89aa                	mv	s3,a0
  a2a83c:	00f10593          	addi	a1,sp,15
  a2a840:	8522                	mv	a0,s0
  a2a842:	9782                	jalr	a5
  a2a844:	842a                	mv	s0,a0
  a2a846:	ed01                	bnez	a0,a2a85e <uapi_efuse_read_bit+0x4c>
  a2a848:	00f14783          	lbu	a5,15(sp)
  a2a84c:	854e                	mv	a0,s3
  a2a84e:	4127d633          	sra	a2,a5,s2
  a2a852:	8a05                	andi	a2,a2,1
  a2a854:	a090                	sb	a2,0(s1)
  a2a856:	886ff0ef          	jal	ra,a298dc <osal_irq_restore>
  a2a85a:	8522                	mv	a0,s0
  a2a85c:	8164                	popret	{ra,s0-s4},48
  a2a85e:	854e                	mv	a0,s3
  a2a860:	87cff0ef          	jal	ra,a298dc <osal_irq_restore>
  a2a864:	547d                	li	s0,-1
  a2a866:	bfd5                	j	a2a85a <uapi_efuse_read_bit+0x48>

00a2a868 <uapi_efuse_read_buffer>:
  a2a868:	8088                	push	{ra,s0-s6},-32
  a2a86a:	547d                	li	s0,-1
  a2a86c:	c231                	beqz	a2,a2a8b0 <uapi_efuse_read_buffer+0x48>
  a2a86e:	0ff00793          	li	a5,255
  a2a872:	02b7ef63          	bltu	a5,a1,a2a8b0 <uapi_efuse_read_buffer+0x48>
  a2a876:	00c587b3          	add	a5,a1,a2
  a2a87a:	10000713          	li	a4,256
  a2a87e:	02f76963          	bltu	a4,a5,a2a8b0 <uapi_efuse_read_buffer+0x48>
  a2a882:	c51d                	beqz	a0,a2a8b0 <uapi_efuse_read_buffer+0x48>
  a2a884:	8932                	mv	s2,a2
  a2a886:	89ae                	mv	s3,a1
  a2a888:	8a2a                	mv	s4,a0
  a2a88a:	20b9                	jal	ra,a2a8d8 <hal_efuse_get_funcs>
  a2a88c:	8b2a                	mv	s6,a0
  a2a88e:	846ff0ef          	jal	ra,a298d4 <osal_irq_lock>
  a2a892:	8aaa                	mv	s5,a0
  a2a894:	4481                	li	s1,0
  a2a896:	010b2783          	lw	a5,16(s6)
  a2a89a:	009a05b3          	add	a1,s4,s1
  a2a89e:	00998533          	add	a0,s3,s1
  a2a8a2:	9782                	jalr	a5
  a2a8a4:	842a                	mv	s0,a0
  a2a8a6:	c519                	beqz	a0,a2a8b4 <uapi_efuse_read_buffer+0x4c>
  a2a8a8:	8556                	mv	a0,s5
  a2a8aa:	832ff0ef          	jal	ra,a298dc <osal_irq_restore>
  a2a8ae:	547d                	li	s0,-1
  a2a8b0:	8522                	mv	a0,s0
  a2a8b2:	8084                	popret	{ra,s0-s6},32
  a2a8b4:	0485                	addi	s1,s1,1
  a2a8b6:	ff24e0e3          	bltu	s1,s2,a2a896 <uapi_efuse_read_buffer+0x2e>
  a2a8ba:	8556                	mv	a0,s5
  a2a8bc:	820ff0ef          	jal	ra,a298dc <osal_irq_restore>
  a2a8c0:	bfc5                	j	a2a8b0 <uapi_efuse_read_buffer+0x48>

00a2a8c2 <hal_efuse_register_funcs>:
  a2a8c2:	c519                	beqz	a0,a2a8d0 <hal_efuse_register_funcs+0xe>
  a2a8c4:	00a0 5734 079f      	l.li	a5,0xa05734
  a2a8ca:	c388                	sw	a0,0(a5)
  a2a8cc:	4501                	li	a0,0
  a2a8ce:	8082                	ret
  a2a8d0:	80000537          	lui	a0,0x80000
  a2a8d4:	0505                	addi	a0,a0,1 # 80000001 <_gp_+0x7f5cb845>
  a2a8d6:	8082                	ret

00a2a8d8 <hal_efuse_get_funcs>:
  a2a8d8:	00a0 5734 079f      	l.li	a5,0xa05734
  a2a8de:	4388                	lw	a0,0(a5)
  a2a8e0:	8082                	ret

00a2a8e2 <hal_efuse_deinit>:
  a2a8e2:	00a0 5738 079f      	l.li	a5,0xa05738
  a2a8e8:	00078023          	sb	zero,0(a5)
  a2a8ec:	8082                	ret

00a2a8ee <hal_efuse_get_writeread_addr>:
  a2a8ee:	8038                	push	{ra,s0-s1},-16
  a2a8f0:	84aa                	mv	s1,a0
  a2a8f2:	7d3010ef          	jal	ra,a2c8c4 <hal_efuse_get_region>
  a2a8f6:	842a                	mv	s0,a0
  a2a8f8:	8526                	mv	a0,s1
  a2a8fa:	7d1010ef          	jal	ra,a2c8ca <hal_efuse_get_byte_offset>
  a2a8fe:	00a3 3f40 079f      	l.li	a5,0xa33f40
  a2a904:	0487879b          	addshf	a5,a5,s0,sll,2
  a2a908:	439c                	lw	a5,0(a5)
  a2a90a:	8105                	srli	a0,a0,0x1
  a2a90c:	9d21                	uxth	a0
  a2a90e:	04a7851b          	addshf	a0,a5,a0,sll,2
  a2a912:	8034                	popret	{ra,s0-s1},16

00a2a914 <hal_efuse_init>:
  a2a914:	8018                	push	{ra},-16
  a2a916:	4501                	li	a0,0
  a2a918:	2255                	jal	ra,a2aabc <hal_efuse_regs_init>
  a2a91a:	00a057b7          	lui	a5,0xa05
  a2a91e:	7407a703          	lw	a4,1856(a5) # a05740 <g_efuse_regs>
  a2a922:	00a3 3dd4 069f      	l.li	a3,0xa33dd4
  a2a928:	2294                	lbu	a3,0(a3)
  a2a92a:	435c                	lw	a5,4(a4)
  a2a92c:	4501                	li	a0,0
  a2a92e:	f007f793          	andi	a5,a5,-256
  a2a932:	8fd5                	or	a5,a5,a3
  a2a934:	c35c                	sw	a5,4(a4)
  a2a936:	00a0 5738 079f      	l.li	a5,0xa05738
  a2a93c:	4705                	li	a4,1
  a2a93e:	a398                	sb	a4,0(a5)
  a2a940:	8014                	popret	{ra},16

00a2a942 <hal_efuse_read_byte>:
  a2a942:	00a0 5738 079f      	l.li	a5,0xa05738
  a2a948:	239c                	lbu	a5,0(a5)
  a2a94a:	c7a1                	beqz	a5,a2a992 <hal_efuse_read_byte+0x50>
  a2a94c:	8048                	push	{ra,s0-s2},-16
  a2a94e:	842a                	mv	s0,a0
  a2a950:	0ff00793          	li	a5,255
  a2a954:	04a7e363          	bltu	a5,a0,a2a99a <hal_efuse_read_byte+0x58>
  a2a958:	c1a9                	beqz	a1,a2a99a <hal_efuse_read_byte+0x58>
  a2a95a:	84ae                	mv	s1,a1
  a2a95c:	3f49                	jal	ra,a2a8ee <hal_efuse_get_writeread_addr>
  a2a95e:	892a                	mv	s2,a0
  a2a960:	8522                	mv	a0,s0
  a2a962:	763010ef          	jal	ra,a2c8c4 <hal_efuse_get_region>
  a2a966:	00a0 5740 079f      	l.li	a5,0xa05740
  a2a96c:	04a7851b          	addshf	a0,a5,a0,sll,2
  a2a970:	4118                	lw	a4,0(a0)
  a2a972:	76c1                	lui	a3,0xffff0
  a2a974:	8805                	andi	s0,s0,1
  a2a976:	431c                	lw	a5,0(a4)
  a2a978:	8ff5                	and	a5,a5,a3
  a2a97a:	0000 5a5a 069f      	l.li	a3,0x5a5a
  a2a980:	8fd5                	or	a5,a5,a3
  a2a982:	c31c                	sw	a5,0(a4)
  a2a984:	00092783          	lw	a5,0(s2)
  a2a988:	c011                	beqz	s0,a2a98c <hal_efuse_read_byte+0x4a>
  a2a98a:	83a1                	srli	a5,a5,0x8
  a2a98c:	a09c                	sb	a5,0(s1)
  a2a98e:	4501                	li	a0,0
  a2a990:	8044                	popret	{ra,s0-s2},16
  a2a992:	8000 1391 051f      	l.li	a0,0x80001391
  a2a998:	8082                	ret
  a2a99a:	80000537          	lui	a0,0x80000
  a2a99e:	0505                	addi	a0,a0,1 # 80000001 <_gp_+0x7f5cb845>
  a2a9a0:	bfc5                	j	a2a990 <hal_efuse_read_byte+0x4e>

00a2a9a2 <hal_efuse_get_die_id>:
  a2a9a2:	00a0 5738 079f      	l.li	a5,0xa05738
  a2a9a8:	239c                	lbu	a5,0(a5)
  a2a9aa:	ef99                	bnez	a5,a2a9c8 <hal_efuse_get_die_id+0x26>
  a2a9ac:	8000 1391 051f      	l.li	a0,0x80001391
  a2a9b2:	8082                	ret
  a2a9b4:	008905b3          	add	a1,s2,s0
  a2a9b8:	8522                	mv	a0,s0
  a2a9ba:	3761                	jal	ra,a2a942 <hal_efuse_read_byte>
  a2a9bc:	e919                	bnez	a0,a2a9d2 <hal_efuse_get_die_id+0x30>
  a2a9be:	0405                	addi	s0,s0,1
  a2a9c0:	fe946ae3          	bltu	s0,s1,a2a9b4 <hal_efuse_get_die_id+0x12>
  a2a9c4:	4501                	li	a0,0
  a2a9c6:	8044                	popret	{ra,s0-s2},16
  a2a9c8:	8048                	push	{ra,s0-s2},-16
  a2a9ca:	892a                	mv	s2,a0
  a2a9cc:	84ae                	mv	s1,a1
  a2a9ce:	4401                	li	s0,0
  a2a9d0:	bfc5                	j	a2a9c0 <hal_efuse_get_die_id+0x1e>
  a2a9d2:	557d                	li	a0,-1
  a2a9d4:	bfcd                	j	a2a9c6 <hal_efuse_get_die_id+0x24>

00a2a9d6 <hal_efuse_write_operation>:
  a2a9d6:	00a0 5738 079f      	l.li	a5,0xa05738
  a2a9dc:	239c                	lbu	a5,0(a5)
  a2a9de:	c3c1                	beqz	a5,a2aa5e <hal_efuse_write_operation+0x88>
  a2a9e0:	8058                	push	{ra,s0-s3},-32
  a2a9e2:	842a                	mv	s0,a0
  a2a9e4:	0ff00793          	li	a5,255
  a2a9e8:	06a7ef63          	bltu	a5,a0,a2aa66 <hal_efuse_write_operation+0x90>
  a2a9ec:	00a054b7          	lui	s1,0xa05
  a2a9f0:	892e                	mv	s2,a1
  a2a9f2:	74048993          	addi	s3,s1,1856 # a05740 <g_efuse_regs>
  a2a9f6:	6cf010ef          	jal	ra,a2c8c4 <hal_efuse_get_region>
  a2a9fa:	04a9851b          	addshf	a0,s3,a0,sll,2
  a2a9fe:	4118                	lw	a4,0(a0)
  a2aa00:	76c1                	lui	a3,0xffff0
  a2aa02:	8522                	mv	a0,s0
  a2aa04:	431c                	lw	a5,0(a4)
  a2aa06:	74048493          	addi	s1,s1,1856
  a2aa0a:	8ff5                	and	a5,a5,a3
  a2aa0c:	0000 a5a5 069f      	l.li	a3,0xa5a5
  a2aa12:	8fd5                	or	a5,a5,a3
  a2aa14:	c31c                	sw	a5,0(a4)
  a2aa16:	6af010ef          	jal	ra,a2c8c4 <hal_efuse_get_region>
  a2aa1a:	04a9851b          	addshf	a0,s3,a0,sll,2
  a2aa1e:	4118                	lw	a4,0(a0)
  a2aa20:	06400513          	li	a0,100
  a2aa24:	475c                	lw	a5,12(a4)
  a2aa26:	0017e793          	ori	a5,a5,1
  a2aa2a:	c75c                	sw	a5,12(a4)
  a2aa2c:	869ff0ef          	jal	ra,a2a294 <uapi_tcxo_delay_us>
  a2aa30:	8522                	mv	a0,s0
  a2aa32:	3d75                	jal	ra,a2a8ee <hal_efuse_get_writeread_addr>
  a2aa34:	00147793          	andi	a5,s0,1
  a2aa38:	c391                	beqz	a5,a2aa3c <hal_efuse_write_operation+0x66>
  a2aa3a:	0922                	slli	s2,s2,0x8
  a2aa3c:	01252023          	sw	s2,0(a0)
  a2aa40:	8522                	mv	a0,s0
  a2aa42:	683010ef          	jal	ra,a2c8c4 <hal_efuse_get_region>
  a2aa46:	04a4849b          	addshf	s1,s1,a0,sll,2
  a2aa4a:	4098                	lw	a4,0(s1)
  a2aa4c:	06400513          	li	a0,100
  a2aa50:	475c                	lw	a5,12(a4)
  a2aa52:	9bf9                	andi	a5,a5,-2
  a2aa54:	c75c                	sw	a5,12(a4)
  a2aa56:	83fff0ef          	jal	ra,a2a294 <uapi_tcxo_delay_us>
  a2aa5a:	4501                	li	a0,0
  a2aa5c:	8054                	popret	{ra,s0-s3},32
  a2aa5e:	8000 1391 051f      	l.li	a0,0x80001391
  a2aa64:	8082                	ret
  a2aa66:	80000537          	lui	a0,0x80000
  a2aa6a:	0505                	addi	a0,a0,1 # 80000001 <_gp_+0x7f5cb845>
  a2aa6c:	bfc5                	j	a2aa5c <hal_efuse_write_operation+0x86>

00a2aa6e <hal_efuse_write_buffer_operation>:
  a2aa6e:	00a0 5738 079f      	l.li	a5,0xa05738
  a2aa74:	239c                	lbu	a5,0(a5)
  a2aa76:	c795                	beqz	a5,a2aaa2 <hal_efuse_write_buffer_operation+0x34>
  a2aa78:	8058                	push	{ra,s0-s3},-32
  a2aa7a:	89b2                	mv	s3,a2
  a2aa7c:	842e                	mv	s0,a1
  a2aa7e:	84ae                	mv	s1,a1
  a2aa80:	40b50933          	sub	s2,a0,a1
  a2aa84:	408487b3          	sub	a5,s1,s0
  a2aa88:	0137e463          	bltu	a5,s3,a2aa90 <hal_efuse_write_buffer_operation+0x22>
  a2aa8c:	4501                	li	a0,0
  a2aa8e:	8054                	popret	{ra,s0-s3},32
  a2aa90:	208c                	lbu	a1,0(s1)
  a2aa92:	00990533          	add	a0,s2,s1
  a2aa96:	4601                	li	a2,0
  a2aa98:	3f3d                	jal	ra,a2a9d6 <hal_efuse_write_operation>
  a2aa9a:	0485                	addi	s1,s1,1
  a2aa9c:	d565                	beqz	a0,a2aa84 <hal_efuse_write_buffer_operation+0x16>
  a2aa9e:	557d                	li	a0,-1
  a2aaa0:	b7fd                	j	a2aa8e <hal_efuse_write_buffer_operation+0x20>
  a2aaa2:	8000 1391 051f      	l.li	a0,0x80001391
  a2aaa8:	8082                	ret

00a2aaaa <hal_efuse_set_clock_period>:
  a2aaaa:	00a3 3dd4 079f      	l.li	a5,0xa33dd4
  a2aab0:	c388                	sw	a0,0(a5)
  a2aab2:	8082                	ret

00a2aab4 <hal_efuse_funcs_get>:
  a2aab4:	00a3 3dd8 051f      	l.li	a0,0xa33dd8
  a2aaba:	8082                	ret

00a2aabc <hal_efuse_regs_init>:
  a2aabc:	02a04763          	bgtz	a0,a2aaea <hal_efuse_regs_init+0x2e>
  a2aac0:	050a                	slli	a0,a0,0x2
  a2aac2:	00a3 3f38 071f      	l.li	a4,0xa33f38
  a2aac8:	00a0 5740 079f      	l.li	a5,0xa05740
  a2aace:	97aa                	add	a5,a5,a0
  a2aad0:	953a                	add	a0,a0,a4
  a2aad2:	4118                	lw	a4,0(a0)
  a2aad4:	4501                	li	a0,0
  a2aad6:	c398                	sw	a4,0(a5)
  a2aad8:	00a347b7          	lui	a5,0xa34
  a2aadc:	f3c7a703          	lw	a4,-196(a5) # a33f3c <g_efuse_boot_done_addr>
  a2aae0:	00a0 573c 079f      	l.li	a5,0xa0573c
  a2aae6:	c398                	sw	a4,0(a5)
  a2aae8:	8082                	ret
  a2aaea:	557d                	li	a0,-1
  a2aaec:	8082                	ret

00a2aaee <hal_pmp_register_funcs>:
  a2aaee:	c519                	beqz	a0,a2aafc <hal_pmp_register_funcs+0xe>
  a2aaf0:	00a0 5744 079f      	l.li	a5,0xa05744
  a2aaf6:	c388                	sw	a0,0(a5)
  a2aaf8:	4501                	li	a0,0
  a2aafa:	8082                	ret
  a2aafc:	80000537          	lui	a0,0x80000
  a2ab00:	0505                	addi	a0,a0,1 # 80000001 <_gp_+0x7f5cb845>
  a2ab02:	8082                	ret

00a2ab04 <hal_pmp_get_funcs>:
  a2ab04:	00a0 5744 079f      	l.li	a5,0xa05744
  a2ab0a:	4388                	lw	a0,0(a5)
  a2ab0c:	8082                	ret

00a2ab0e <hal_pmp_riscv31_config>:
  a2ab0e:	8048                	push	{ra,s0-s2},-16
  a2ab10:	00052903          	lw	s2,0(a0)
  a2ab14:	10097fbb          	bgeui	s2,16,a2ab52 <hal_pmp_riscv31_config+0x44>
  a2ab18:	414c                	lw	a1,4(a0)
  a2ab1a:	2500                	lbu	s0,8(a0)
  a2ab1c:	84aa                	mv	s1,a0
  a2ab1e:	854a                	mv	a0,s2
  a2ab20:	2089                	jal	ra,a2ab62 <hal_pmp_riscv31_regs_set_pmpaddr>
  a2ab22:	85a2                	mv	a1,s0
  a2ab24:	854a                	mv	a0,s2
  a2ab26:	28e9                	jal	ra,a2ac00 <hal_pmp_riscv31_regs_set_memxattr>
  a2ab28:	4480                	lw	s0,8(s1)
  a2ab2a:	854a                	mv	a0,s2
  a2ab2c:	8021                	srli	s0,s0,0x8
  a2ab2e:	881d                	andi	s0,s0,7
  a2ab30:	85a2                	mv	a1,s0
  a2ab32:	2a39                	jal	ra,a2ac50 <hal_pmp_riscv31_regs_set_pmpxcfg>
  a2ab34:	449c                	lw	a5,8(s1)
  a2ab36:	854a                	mv	a0,s2
  a2ab38:	0087d713          	srli	a4,a5,0x8
  a2ab3c:	8b61                	andi	a4,a4,24
  a2ab3e:	83a1                	srli	a5,a5,0x8
  a2ab40:	0807f593          	andi	a1,a5,128
  a2ab44:	8c59                	or	s0,s0,a4
  a2ab46:	8dc1                	or	a1,a1,s0
  a2ab48:	2221                	jal	ra,a2ac50 <hal_pmp_riscv31_regs_set_pmpxcfg>
  a2ab4a:	0ff0000f          	fence
  a2ab4e:	4501                	li	a0,0
  a2ab50:	8044                	popret	{ra,s0-s2},16
  a2ab52:	80000537          	lui	a0,0x80000
  a2ab56:	0505                	addi	a0,a0,1 # 80000001 <_gp_+0x7f5cb845>
  a2ab58:	bfe5                	j	a2ab50 <hal_pmp_riscv31_config+0x42>

00a2ab5a <hal_pmp_riscv31_funcs_get>:
  a2ab5a:	00a3 3e04 051f      	l.li	a0,0xa33e04
  a2ab60:	8082                	ret

00a2ab62 <hal_pmp_riscv31_regs_set_pmpaddr>:
  a2ab62:	e501                	bnez	a0,a2ab6a <hal_pmp_riscv31_regs_set_pmpaddr+0x8>
  a2ab64:	3b059073          	csrw	pmpaddr0,a1
  a2ab68:	8082                	ret
  a2ab6a:	010512bb          	bnei	a0,1,a2ab74 <hal_pmp_riscv31_regs_set_pmpaddr+0x12>
  a2ab6e:	3b159073          	csrw	pmpaddr1,a1
  a2ab72:	8082                	ret
  a2ab74:	020512bb          	bnei	a0,2,a2ab7e <hal_pmp_riscv31_regs_set_pmpaddr+0x1c>
  a2ab78:	3b259073          	csrw	pmpaddr2,a1
  a2ab7c:	8082                	ret
  a2ab7e:	030512bb          	bnei	a0,3,a2ab88 <hal_pmp_riscv31_regs_set_pmpaddr+0x26>
  a2ab82:	3b359073          	csrw	pmpaddr3,a1
  a2ab86:	8082                	ret
  a2ab88:	040512bb          	bnei	a0,4,a2ab92 <hal_pmp_riscv31_regs_set_pmpaddr+0x30>
  a2ab8c:	3b459073          	csrw	pmpaddr4,a1
  a2ab90:	8082                	ret
  a2ab92:	050512bb          	bnei	a0,5,a2ab9c <hal_pmp_riscv31_regs_set_pmpaddr+0x3a>
  a2ab96:	3b559073          	csrw	pmpaddr5,a1
  a2ab9a:	8082                	ret
  a2ab9c:	060512bb          	bnei	a0,6,a2aba6 <hal_pmp_riscv31_regs_set_pmpaddr+0x44>
  a2aba0:	3b659073          	csrw	pmpaddr6,a1
  a2aba4:	8082                	ret
  a2aba6:	070512bb          	bnei	a0,7,a2abb0 <hal_pmp_riscv31_regs_set_pmpaddr+0x4e>
  a2abaa:	3b759073          	csrw	pmpaddr7,a1
  a2abae:	8082                	ret
  a2abb0:	080512bb          	bnei	a0,8,a2abba <hal_pmp_riscv31_regs_set_pmpaddr+0x58>
  a2abb4:	3b859073          	csrw	pmpaddr8,a1
  a2abb8:	8082                	ret
  a2abba:	090512bb          	bnei	a0,9,a2abc4 <hal_pmp_riscv31_regs_set_pmpaddr+0x62>
  a2abbe:	3b959073          	csrw	pmpaddr9,a1
  a2abc2:	8082                	ret
  a2abc4:	0a0512bb          	bnei	a0,10,a2abce <hal_pmp_riscv31_regs_set_pmpaddr+0x6c>
  a2abc8:	3ba59073          	csrw	pmpaddr10,a1
  a2abcc:	8082                	ret
  a2abce:	0b0512bb          	bnei	a0,11,a2abd8 <hal_pmp_riscv31_regs_set_pmpaddr+0x76>
  a2abd2:	3bb59073          	csrw	pmpaddr11,a1
  a2abd6:	8082                	ret
  a2abd8:	0c0512bb          	bnei	a0,12,a2abe2 <hal_pmp_riscv31_regs_set_pmpaddr+0x80>
  a2abdc:	3bc59073          	csrw	pmpaddr12,a1
  a2abe0:	8082                	ret
  a2abe2:	0d0512bb          	bnei	a0,13,a2abec <hal_pmp_riscv31_regs_set_pmpaddr+0x8a>
  a2abe6:	3bd59073          	csrw	pmpaddr13,a1
  a2abea:	8082                	ret
  a2abec:	0e0512bb          	bnei	a0,14,a2abf6 <hal_pmp_riscv31_regs_set_pmpaddr+0x94>
  a2abf0:	3be59073          	csrw	pmpaddr14,a1
  a2abf4:	8082                	ret
  a2abf6:	0f05123b          	bnei	a0,15,a2abfe <hal_pmp_riscv31_regs_set_pmpaddr+0x9c>
  a2abfa:	3bf59073          	csrw	pmpaddr15,a1
  a2abfe:	8082                	ret

00a2ac00 <hal_pmp_riscv31_regs_set_memxattr>:
  a2ac00:	0ff57713          	andi	a4,a0,255
  a2ac04:	080579bb          	bgeui	a0,8,a2ac2a <hal_pmp_riscv31_regs_set_memxattr+0x2a>
  a2ac08:	7d8027f3          	csrr	a5,0x7d8
  a2ac0c:	070a                	slli	a4,a4,0x2
  a2ac0e:	9f01                	uxtb	a4
  a2ac10:	46bd                	li	a3,15
  a2ac12:	00e696b3          	sll	a3,a3,a4
  a2ac16:	fff6c693          	not	a3,a3
  a2ac1a:	8efd                	and	a3,a3,a5
  a2ac1c:	00e59733          	sll	a4,a1,a4
  a2ac20:	8f55                	or	a4,a4,a3
  a2ac22:	82ba                	mv	t0,a4
  a2ac24:	7d829073          	csrw	0x7d8,t0
  a2ac28:	8082                	ret
  a2ac2a:	7d902673          	csrr	a2,0x7d9
  a2ac2e:	ff870793          	addi	a5,a4,-8 # 4410cff8 <_gp_+0x436d883c>
  a2ac32:	078a                	slli	a5,a5,0x2
  a2ac34:	9f81                	uxtb	a5
  a2ac36:	46bd                	li	a3,15
  a2ac38:	00f696b3          	sll	a3,a3,a5
  a2ac3c:	fff6c693          	not	a3,a3
  a2ac40:	8ef1                	and	a3,a3,a2
  a2ac42:	00f597b3          	sll	a5,a1,a5
  a2ac46:	8fd5                	or	a5,a5,a3
  a2ac48:	82be                	mv	t0,a5
  a2ac4a:	7d929073          	csrw	0x7d9,t0
  a2ac4e:	8082                	ret

00a2ac50 <hal_pmp_riscv31_regs_set_pmpxcfg>:
  a2ac50:	00255793          	srli	a5,a0,0x2
  a2ac54:	1141                	addi	sp,sp,-16
  a2ac56:	01078a3b          	beqi	a5,1,a2ac7e <hal_pmp_riscv31_regs_set_pmpxcfg+0x2e>
  a2ac5a:	c799                	beqz	a5,a2ac68 <hal_pmp_riscv31_regs_set_pmpxcfg+0x18>
  a2ac5c:	02078ebb          	beqi	a5,2,a2ac96 <hal_pmp_riscv31_regs_set_pmpxcfg+0x46>
  a2ac60:	031783bb          	beqi	a5,3,a2acae <hal_pmp_riscv31_regs_set_pmpxcfg+0x5e>
  a2ac64:	0141                	addi	sp,sp,16
  a2ac66:	8082                	ret
  a2ac68:	3a0027f3          	csrr	a5,pmpcfg0
  a2ac6c:	c63e                	sw	a5,12(sp)
  a2ac6e:	081c                	addi	a5,sp,16
  a2ac70:	953e                	add	a0,a0,a5
  a2ac72:	feb50e23          	sb	a1,-4(a0)
  a2ac76:	47b2                	lw	a5,12(sp)
  a2ac78:	3a079073          	csrw	pmpcfg0,a5
  a2ac7c:	b7e5                	j	a2ac64 <hal_pmp_riscv31_regs_set_pmpxcfg+0x14>
  a2ac7e:	3a1027f3          	csrr	a5,pmpcfg1
  a2ac82:	c63e                	sw	a5,12(sp)
  a2ac84:	890d                	andi	a0,a0,3
  a2ac86:	081c                	addi	a5,sp,16
  a2ac88:	953e                	add	a0,a0,a5
  a2ac8a:	feb50e23          	sb	a1,-4(a0)
  a2ac8e:	47b2                	lw	a5,12(sp)
  a2ac90:	3a179073          	csrw	pmpcfg1,a5
  a2ac94:	bfc1                	j	a2ac64 <hal_pmp_riscv31_regs_set_pmpxcfg+0x14>
  a2ac96:	3a2027f3          	csrr	a5,pmpcfg2
  a2ac9a:	c63e                	sw	a5,12(sp)
  a2ac9c:	890d                	andi	a0,a0,3
  a2ac9e:	081c                	addi	a5,sp,16
  a2aca0:	953e                	add	a0,a0,a5
  a2aca2:	feb50e23          	sb	a1,-4(a0)
  a2aca6:	47b2                	lw	a5,12(sp)
  a2aca8:	3a279073          	csrw	pmpcfg2,a5
  a2acac:	bf65                	j	a2ac64 <hal_pmp_riscv31_regs_set_pmpxcfg+0x14>
  a2acae:	3a3027f3          	csrr	a5,pmpcfg3
  a2acb2:	c63e                	sw	a5,12(sp)
  a2acb4:	890d                	andi	a0,a0,3
  a2acb6:	081c                	addi	a5,sp,16
  a2acb8:	953e                	add	a0,a0,a5
  a2acba:	feb50e23          	sb	a1,-4(a0)
  a2acbe:	47b2                	lw	a5,12(sp)
  a2acc0:	3a379073          	csrw	pmpcfg3,a5
  a2acc4:	b745                	j	a2ac64 <hal_pmp_riscv31_regs_set_pmpxcfg+0x14>

00a2acc6 <hal_reboot_chip>:
  a2acc6:	8018                	push	{ra},-16
  a2acc8:	c0dfe0ef          	jal	ra,a298d4 <osal_irq_lock>
  a2accc:	591020ef          	jal	ra,a2da5c <set_cpu_utils_system_boot_magic>
  a2acd0:	461010ef          	jal	ra,a2c930 <reboot_port_reboot_chip>
  a2acd4:	a001                	j	a2acd4 <hal_reboot_chip+0xe>

00a2acd6 <hal_rkp_lock>:
  a2acd6:	8048                	push	{ra,s0-s2},-16
  a2acd8:	88aff0ef          	jal	ra,a29d62 <crypto_get_cpu_type>
  a2acdc:	c509                	beqz	a0,a2ace6 <hal_rkp_lock+0x10>
  a2acde:	01050cbb          	beqi	a0,1,a2ad10 <hal_rkp_lock+0x3a>
  a2ace2:	557d                	li	a0,-1
  a2ace4:	8044                	popret	{ra,s0-s2},16
  a2ace6:	4489                	li	s1,2
  a2ace8:	000f 4240 041f      	l.li	s0,0xf4240
  a2acee:	44112937          	lui	s2,0x44112
  a2acf2:	00992023          	sw	s1,0(s2) # 44112000 <_gp_+0x436dd844>
  a2acf6:	0ff0000f          	fence
  a2acfa:	00092783          	lw	a5,0(s2)
  a2acfe:	8b9d                	andi	a5,a5,7
  a2ad00:	00978a63          	beq	a5,s1,a2ad14 <hal_rkp_lock+0x3e>
  a2ad04:	4505                	li	a0,1
  a2ad06:	147d                	addi	s0,s0,-1
  a2ad08:	d8cff0ef          	jal	ra,a2a294 <uapi_tcxo_delay_us>
  a2ad0c:	f07d                	bnez	s0,a2acf2 <hal_rkp_lock+0x1c>
  a2ad0e:	bfd1                	j	a2ace2 <hal_rkp_lock+0xc>
  a2ad10:	4485                	li	s1,1
  a2ad12:	bfd9                	j	a2ace8 <hal_rkp_lock+0x12>
  a2ad14:	4501                	li	a0,0
  a2ad16:	b7f9                	j	a2ace4 <hal_rkp_lock+0xe>

00a2ad18 <hal_rkp_unlock>:
  a2ad18:	441127b7          	lui	a5,0x44112
  a2ad1c:	0007a023          	sw	zero,0(a5) # 44112000 <_gp_+0x436dd844>
  a2ad20:	0ff0000f          	fence
  a2ad24:	4501                	li	a0,0
  a2ad26:	8082                	ret

00a2ad28 <hal_rkp_kdf_wait_done>:
  a2ad28:	8138                	push	{ra,s0-s1},-32
  a2ad2a:	57fd                	li	a5,-1
  a2ad2c:	c63e                	sw	a5,12(sp)
  a2ad2e:	000f 4240 041f      	l.li	s0,0xf4240
  a2ad34:	441124b7          	lui	s1,0x44112
  a2ad38:	40dc                	lw	a5,4(s1)
  a2ad3a:	8b85                	andi	a5,a5,1
  a2ad3c:	ef91                	bnez	a5,a2ad58 <hal_rkp_kdf_wait_done+0x30>
  a2ad3e:	4785                	li	a5,1
  a2ad40:	c89c                	sw	a5,16(s1)
  a2ad42:	0ff0000f          	fence
  a2ad46:	c602                	sw	zero,12(sp)
  a2ad48:	441127b7          	lui	a5,0x44112
  a2ad4c:	479c                	lw	a5,8(a5)
  a2ad4e:	c399                	beqz	a5,a2ad54 <hal_rkp_kdf_wait_done+0x2c>
  a2ad50:	57fd                	li	a5,-1
  a2ad52:	c63e                	sw	a5,12(sp)
  a2ad54:	4532                	lw	a0,12(sp)
  a2ad56:	8134                	popret	{ra,s0-s1},32
  a2ad58:	4505                	li	a0,1
  a2ad5a:	147d                	addi	s0,s0,-1
  a2ad5c:	d38ff0ef          	jal	ra,a2a294 <uapi_tcxo_delay_us>
  a2ad60:	fc61                	bnez	s0,a2ad38 <hal_rkp_kdf_wait_done+0x10>
  a2ad62:	57fd                	li	a5,-1
  a2ad64:	c63e                	sw	a5,12(sp)
  a2ad66:	b7cd                	j	a2ad48 <hal_rkp_kdf_wait_done+0x20>

00a2ad68 <hal_rkp_kdf_hard_calculation>:
  a2ad68:	8238                	push	{ra,s0-s1},-48
  a2ad6a:	57fd                	li	a5,-1
  a2ad6c:	c63e                	sw	a5,12(sp)
  a2ad6e:	c802                	sw	zero,16(sp)
  a2ad70:	ca02                	sw	zero,20(sp)
  a2ad72:	cc02                	sw	zero,24(sp)
  a2ad74:	ce02                	sw	zero,28(sp)
  a2ad76:	0e050863          	beqz	a0,a2ae66 <hal_rkp_kdf_hard_calculation+0xfe>
  a2ad7a:	4504                	lw	s1,8(a0)
  a2ad7c:	c485                	beqz	s1,a2ada4 <hal_rkp_kdf_hard_calculation+0x3c>
  a2ad7e:	4558                	lw	a4,12(a0)
  a2ad80:	1c07193b          	bnei	a4,28,a2ada4 <hal_rkp_kdf_hard_calculation+0x3c>
  a2ad84:	2158                	lbu	a4,4(a0)
  a2ad86:	020777bb          	bgeui	a4,2,a2ada4 <hal_rkp_kdf_hard_calculation+0x3c>
  a2ad8a:	4110                	lw	a2,0(a0)
  a2ad8c:	842a                	mv	s0,a0
  a2ad8e:	0814                	addi	a3,sp,16
  a2ad90:	458d                	li	a1,3
  a2ad92:	00a3 3e30 051f      	l.li	a0,0xa33e30
  a2ad98:	fe3fe0ef          	jal	ra,a29d7a <crypto_get_value_by_index>
  a2ad9c:	c62a                	sw	a0,12(sp)
  a2ad9e:	47b2                	lw	a5,12(sp)
  a2ada0:	c781                	beqz	a5,a2ada8 <hal_rkp_kdf_hard_calculation+0x40>
  a2ada2:	47b2                	lw	a5,12(sp)
  a2ada4:	853e                	mv	a0,a5
  a2ada6:	8234                	popret	{ra,s0-s1},48
  a2ada8:	4010                	lw	a2,0(s0)
  a2adaa:	0874                	addi	a3,sp,28
  a2adac:	458d                	li	a1,3
  a2adae:	00a3 3e48 051f      	l.li	a0,0xa33e48
  a2adb4:	fc7fe0ef          	jal	ra,a29d7a <crypto_get_value_by_index>
  a2adb8:	c62a                	sw	a0,12(sp)
  a2adba:	47b2                	lw	a5,12(sp)
  a2adbc:	f3fd                	bnez	a5,a2ada2 <hal_rkp_kdf_hard_calculation+0x3a>
  a2adbe:	2050                	lbu	a2,4(s0)
  a2adc0:	0854                	addi	a3,sp,20
  a2adc2:	4589                	li	a1,2
  a2adc4:	00a3 3e08 051f      	l.li	a0,0xa33e08
  a2adca:	fb1fe0ef          	jal	ra,a29d7a <crypto_get_value_by_index>
  a2adce:	c62a                	sw	a0,12(sp)
  a2add0:	47b2                	lw	a5,12(sp)
  a2add2:	fbe1                	bnez	a5,a2ada2 <hal_rkp_kdf_hard_calculation+0x3a>
  a2add4:	3050                	lbu	a2,5(s0)
  a2add6:	0834                	addi	a3,sp,24
  a2add8:	458d                	li	a1,3
  a2adda:	00a3 3e18 051f      	l.li	a0,0xa33e18
  a2ade0:	f9bfe0ef          	jal	ra,a29d7a <crypto_get_value_by_index>
  a2ade4:	c62a                	sw	a0,12(sp)
  a2ade6:	47b2                	lw	a5,12(sp)
  a2ade8:	ffcd                	bnez	a5,a2ada2 <hal_rkp_kdf_hard_calculation+0x3a>
  a2adea:	44112737          	lui	a4,0x44112
  a2adee:	281c                	lbu	a5,16(s0)
  a2adf0:	4672                	lw	a2,28(sp)
  a2adf2:	36072683          	lw	a3,864(a4) # 44112360 <_gp_+0x436ddba4>
  a2adf6:	00c797b3          	sll	a5,a5,a2
  a2adfa:	8fd5                	or	a5,a5,a3
  a2adfc:	36f72023          	sw	a5,864(a4)
  a2ae00:	0ff0000f          	fence
  a2ae04:	4701                	li	a4,0
  a2ae06:	87a6                	mv	a5,s1
  a2ae08:	1104 48d0 061f      	l.li	a2,0x110448d0
  a2ae0e:	4454                	lw	a3,12(s0)
  a2ae10:	8289                	srli	a3,a3,0x2
  a2ae12:	04d76063          	bltu	a4,a3,a2ae52 <hal_rkp_kdf_hard_calculation+0xea>
  a2ae16:	44112637          	lui	a2,0x44112
  a2ae1a:	425c                	lw	a5,4(a2)
  a2ae1c:	4762                	lw	a4,24(sp)
  a2ae1e:	76d1                	lui	a3,0xffff4
  a2ae20:	16fd                	addi	a3,a3,-1 # ffff3fff <_gp_+0xff5bf843>
  a2ae22:	8b0d                	andi	a4,a4,3
  a2ae24:	8ff5                	and	a5,a5,a3
  a2ae26:	1ce7a79b          	orshf	a5,a5,a4,sll,14
  a2ae2a:	4752                	lw	a4,20(sp)
  a2ae2c:	9bc5                	andi	a5,a5,-15
  a2ae2e:	8b1d                	andi	a4,a4,7
  a2ae30:	02e7a79b          	orshf	a5,a5,a4,sll,1
  a2ae34:	4742                	lw	a4,16(sp)
  a2ae36:	e0f7f793          	andi	a5,a5,-497
  a2ae3a:	8b7d                	andi	a4,a4,31
  a2ae3c:	08e7a79b          	orshf	a5,a5,a4,sll,4
  a2ae40:	0017e793          	ori	a5,a5,1
  a2ae44:	c25c                	sw	a5,4(a2)
  a2ae46:	0ff0000f          	fence
  a2ae4a:	3df9                	jal	ra,a2ad28 <hal_rkp_kdf_wait_done>
  a2ae4c:	c62a                	sw	a0,12(sp)
  a2ae4e:	47b2                	lw	a5,12(sp)
  a2ae50:	bf89                	j	a2ada2 <hal_rkp_kdf_hard_calculation+0x3a>
  a2ae52:	438c                	lw	a1,0(a5)
  a2ae54:	00c706b3          	add	a3,a4,a2
  a2ae58:	068a                	slli	a3,a3,0x2
  a2ae5a:	c28c                	sw	a1,0(a3)
  a2ae5c:	0ff0000f          	fence
  a2ae60:	0705                	addi	a4,a4,1
  a2ae62:	0791                	addi	a5,a5,4 # 44112004 <_gp_+0x436dd848>
  a2ae64:	b76d                	j	a2ae0e <hal_rkp_kdf_hard_calculation+0xa6>
  a2ae66:	57fd                	li	a5,-1
  a2ae68:	bf35                	j	a2ada4 <hal_rkp_kdf_hard_calculation+0x3c>

00a2ae6a <inner_kslot_chn_is_locked>:
  a2ae6a:	44114737          	lui	a4,0x44114
  a2ae6e:	b3072783          	lw	a5,-1232(a4) # 44113b30 <_gp_+0x436df374>
  a2ae72:	76e1                	lui	a3,0xffff8
  a2ae74:	16fd                	addi	a3,a3,-1 # ffff7fff <_gp_+0xff5c3843>
  a2ae76:	8985                	andi	a1,a1,1
  a2ae78:	8ff5                	and	a5,a5,a3
  a2ae7a:	1eb7a79b          	orshf	a5,a5,a1,sll,15
  a2ae7e:	3ff57513          	andi	a0,a0,1023
  a2ae82:	c007f793          	andi	a5,a5,-1024
  a2ae86:	8fc9                	or	a5,a5,a0
  a2ae88:	b2f72823          	sw	a5,-1232(a4)
  a2ae8c:	0ff0000f          	fence
  a2ae90:	b3472503          	lw	a0,-1228(a4)
  a2ae94:	891d                	andi	a0,a0,7
  a2ae96:	c211                	beqz	a2,a2ae9a <inner_kslot_chn_is_locked+0x30>
  a2ae98:	c208                	sw	a0,0(a2)
  a2ae9a:	00a03533          	snez	a0,a0
  a2ae9e:	8082                	ret

00a2aea0 <inner_chk_kslot_busy>:
  a2aea0:	8028                	push	{ra,s0},-16
  a2aea2:	842a                	mv	s0,a0
  a2aea4:	ebffe0ef          	jal	ra,a29d62 <crypto_get_cpu_type>
  a2aea8:	c911                	beqz	a0,a2aebc <inner_chk_kslot_busy+0x1c>
  a2aeaa:	0105173b          	bnei	a0,1,a2aec6 <inner_chk_kslot_busy+0x26>
  a2aeae:	441147b7          	lui	a5,0x44114
  a2aeb2:	b147a783          	lw	a5,-1260(a5) # 44113b14 <_gp_+0x436df358>
  a2aeb6:	c01c                	sw	a5,0(s0)
  a2aeb8:	4501                	li	a0,0
  a2aeba:	8024                	popret	{ra,s0},16
  a2aebc:	441147b7          	lui	a5,0x44114
  a2aec0:	b107a783          	lw	a5,-1264(a5) # 44113b10 <_gp_+0x436df354>
  a2aec4:	bfcd                	j	a2aeb6 <inner_chk_kslot_busy+0x16>
  a2aec6:	4505                	li	a0,1
  a2aec8:	bfcd                	j	a2aeba <inner_chk_kslot_busy+0x1a>

00a2aeca <inner_kslot_is_busy>:
  a2aeca:	8118                	push	{ra},-32
  a2aecc:	0068                	addi	a0,sp,12
  a2aece:	c602                	sw	zero,12(sp)
  a2aed0:	3fc1                	jal	ra,a2aea0 <inner_chk_kslot_busy>
  a2aed2:	4785                	li	a5,1
  a2aed4:	e119                	bnez	a0,a2aeda <inner_kslot_is_busy+0x10>
  a2aed6:	47b2                	lw	a5,12(sp)
  a2aed8:	8b85                	andi	a5,a5,1
  a2aeda:	853e                	mv	a0,a5
  a2aedc:	8114                	popret	{ra},32

00a2aede <hal_keyslot_lock>:
  a2aede:	8248                	push	{ra,s0-s2},-48
  a2aee0:	57fd                	li	a5,-1
  a2aee2:	c62e                	sw	a1,12(sp)
  a2aee4:	84aa                	mv	s1,a0
  a2aee6:	cc3e                	sw	a5,24(sp)
  a2aee8:	e7bfe0ef          	jal	ra,a29d62 <crypto_get_cpu_type>
  a2aeec:	45b2                	lw	a1,12(sp)
  a2aeee:	ce02                	sw	zero,28(sp)
  a2aef0:	892a                	mv	s2,a0
  a2aef2:	c591                	beqz	a1,a2aefe <hal_keyslot_lock+0x20>
  a2aef4:	0105863b          	beqi	a1,1,a2af0c <hal_keyslot_lock+0x2e>
  a2aef8:	4401                	li	s0,0
  a2aefa:	57fd                	li	a5,-1
  a2aefc:	a019                	j	a2af02 <hal_keyslot_lock+0x24>
  a2aefe:	4401                	li	s0,0
  a2af00:	4781                	li	a5,0
  a2af02:	cc3e                	sw	a5,24(sp)
  a2af04:	47e2                	lw	a5,24(sp)
  a2af06:	c789                	beqz	a5,a2af10 <hal_keyslot_lock+0x32>
  a2af08:	4562                	lw	a0,24(sp)
  a2af0a:	8244                	popret	{ra,s0-s2},48
  a2af0c:	4405                	li	s0,1
  a2af0e:	bfcd                	j	a2af00 <hal_keyslot_lock+0x22>
  a2af10:	4601                	li	a2,0
  a2af12:	85a2                	mv	a1,s0
  a2af14:	8526                	mv	a0,s1
  a2af16:	3f91                	jal	ra,a2ae6a <inner_kslot_chn_is_locked>
  a2af18:	c119                	beqz	a0,a2af1e <hal_keyslot_lock+0x40>
  a2af1a:	557d                	li	a0,-1
  a2af1c:	b7fd                	j	a2af0a <hal_keyslot_lock+0x2c>
  a2af1e:	3775                	jal	ra,a2aeca <inner_kslot_is_busy>
  a2af20:	fd6d                	bnez	a0,a2af1a <hal_keyslot_lock+0x3c>
  a2af22:	04091763          	bnez	s2,a2af70 <hal_keyslot_lock+0x92>
  a2af26:	4909                	li	s2,2
  a2af28:	0000 1b00 071f      	l.li	a4,0x1b00
  a2af2e:	441127b7          	lui	a5,0x44112
  a2af32:	973e                	add	a4,a4,a5
  a2af34:	431c                	lw	a5,0(a4)
  a2af36:	76e1                	lui	a3,0xffff8
  a2af38:	16fd                	addi	a3,a3,-1 # ffff7fff <_gp_+0xff5c3843>
  a2af3a:	8ff5                	and	a5,a5,a3
  a2af3c:	1e87a79b          	orshf	a5,a5,s0,sll,15
  a2af40:	3ff4f693          	andi	a3,s1,1023
  a2af44:	c007f793          	andi	a5,a5,-1024
  a2af48:	8fd5                	or	a5,a5,a3
  a2af4a:	001006b7          	lui	a3,0x100
  a2af4e:	8fd5                	or	a5,a5,a3
  a2af50:	c31c                	sw	a5,0(a4)
  a2af52:	0ff0000f          	fence
  a2af56:	0870                	addi	a2,sp,28
  a2af58:	85a2                	mv	a1,s0
  a2af5a:	8526                	mv	a0,s1
  a2af5c:	3739                	jal	ra,a2ae6a <inner_kslot_chn_is_locked>
  a2af5e:	dd55                	beqz	a0,a2af1a <hal_keyslot_lock+0x3c>
  a2af60:	4572                	lw	a0,28(sp)
  a2af62:	41250533          	sub	a0,a0,s2
  a2af66:	00a03533          	snez	a0,a0
  a2af6a:	40a00533          	neg	a0,a0
  a2af6e:	bf71                	j	a2af0a <hal_keyslot_lock+0x2c>
  a2af70:	4905                	li	s2,1
  a2af72:	0000 1b04 071f      	l.li	a4,0x1b04
  a2af78:	bf5d                	j	a2af2e <hal_keyslot_lock+0x50>

00a2af7a <hal_keyslot_unlock>:
  a2af7a:	8248                	push	{ra,s0-s2},-48
  a2af7c:	57fd                	li	a5,-1
  a2af7e:	c62e                	sw	a1,12(sp)
  a2af80:	842a                	mv	s0,a0
  a2af82:	cc3e                	sw	a5,24(sp)
  a2af84:	ddffe0ef          	jal	ra,a29d62 <crypto_get_cpu_type>
  a2af88:	45b2                	lw	a1,12(sp)
  a2af8a:	892a                	mv	s2,a0
  a2af8c:	c591                	beqz	a1,a2af98 <hal_keyslot_unlock+0x1e>
  a2af8e:	010586bb          	beqi	a1,1,a2afa8 <hal_keyslot_unlock+0x2e>
  a2af92:	4481                	li	s1,0
  a2af94:	57fd                	li	a5,-1
  a2af96:	a019                	j	a2af9c <hal_keyslot_unlock+0x22>
  a2af98:	4481                	li	s1,0
  a2af9a:	4781                	li	a5,0
  a2af9c:	cc3e                	sw	a5,24(sp)
  a2af9e:	47e2                	lw	a5,24(sp)
  a2afa0:	c791                	beqz	a5,a2afac <hal_keyslot_unlock+0x32>
  a2afa2:	47e2                	lw	a5,24(sp)
  a2afa4:	853e                	mv	a0,a5
  a2afa6:	8244                	popret	{ra,s0-s2},48
  a2afa8:	4485                	li	s1,1
  a2afaa:	bfc5                	j	a2af9a <hal_keyslot_unlock+0x20>
  a2afac:	3f39                	jal	ra,a2aeca <inner_kslot_is_busy>
  a2afae:	57fd                	li	a5,-1
  a2afb0:	f975                	bnez	a0,a2afa4 <hal_keyslot_unlock+0x2a>
  a2afb2:	4601                	li	a2,0
  a2afb4:	85a6                	mv	a1,s1
  a2afb6:	8522                	mv	a0,s0
  a2afb8:	3d4d                	jal	ra,a2ae6a <inner_kslot_chn_is_locked>
  a2afba:	4781                	li	a5,0
  a2afbc:	d565                	beqz	a0,a2afa4 <hal_keyslot_unlock+0x2a>
  a2afbe:	06090363          	beqz	s2,a2b024 <hal_keyslot_unlock+0xaa>
  a2afc2:	011917bb          	bnei	s2,1,a2b020 <hal_keyslot_unlock+0xa6>
  a2afc6:	0000 1b04 079f      	l.li	a5,0x1b04
  a2afcc:	44112737          	lui	a4,0x44112
  a2afd0:	97ba                	add	a5,a5,a4
  a2afd2:	4388                	lw	a0,0(a5)
  a2afd4:	7761                	lui	a4,0xffff8
  a2afd6:	177d                	addi	a4,a4,-1 # ffff7fff <_gp_+0xff5c3843>
  a2afd8:	8d79                	and	a0,a0,a4
  a2afda:	1e95251b          	orshf	a0,a0,s1,sll,15
  a2afde:	3ff47413          	andi	s0,s0,1023
  a2afe2:	c0057513          	andi	a0,a0,-1024
  a2afe6:	8d41                	or	a0,a0,s0
  a2afe8:	ffef ffff 071f      	l.li	a4,0xffefffff
  a2afee:	8d79                	and	a0,a0,a4
  a2aff0:	c388                	sw	a0,0(a5)
  a2aff2:	0ff0000f          	fence
  a2aff6:	000f 4240 041f      	l.li	s0,0xf4240
  a2affc:	35f9                	jal	ra,a2aeca <inner_kslot_is_busy>
  a2affe:	c51d                	beqz	a0,a2b02c <hal_keyslot_unlock+0xb2>
  a2b000:	4505                	li	a0,1
  a2b002:	147d                	addi	s0,s0,-1
  a2b004:	a90ff0ef          	jal	ra,a2a294 <uapi_tcxo_delay_us>
  a2b008:	f875                	bnez	s0,a2affc <hal_keyslot_unlock+0x82>
  a2b00a:	57fd                	li	a5,-1
  a2b00c:	cc3e                	sw	a5,24(sp)
  a2b00e:	47e2                	lw	a5,24(sp)
  a2b010:	fbc9                	bnez	a5,a2afa2 <hal_keyslot_unlock+0x28>
  a2b012:	0868                	addi	a0,sp,28
  a2b014:	ce02                	sw	zero,28(sp)
  a2b016:	3569                	jal	ra,a2aea0 <inner_chk_kslot_busy>
  a2b018:	e501                	bnez	a0,a2b020 <hal_keyslot_unlock+0xa6>
  a2b01a:	47f2                	lw	a5,28(sp)
  a2b01c:	8b89                	andi	a5,a5,2
  a2b01e:	d3d9                	beqz	a5,a2afa4 <hal_keyslot_unlock+0x2a>
  a2b020:	57fd                	li	a5,-1
  a2b022:	b749                	j	a2afa4 <hal_keyslot_unlock+0x2a>
  a2b024:	0000 1b00 079f      	l.li	a5,0x1b00
  a2b02a:	b74d                	j	a2afcc <hal_keyslot_unlock+0x52>
  a2b02c:	4781                	li	a5,0
  a2b02e:	bff9                	j	a2b00c <hal_keyslot_unlock+0x92>

00a2b030 <inner_klad_set_key_odd>:
  a2b030:	441137b7          	lui	a5,0x44113
  a2b034:	4b98                	lw	a4,16(a5)
  a2b036:	ffe77793          	andi	a5,a4,-2
  a2b03a:	c119                	beqz	a0,a2b040 <inner_klad_set_key_odd+0x10>
  a2b03c:	00176793          	ori	a5,a4,1
  a2b040:	44113737          	lui	a4,0x44113
  a2b044:	cb1c                	sw	a5,16(a4)
  a2b046:	0ff0000f          	fence
  a2b04a:	8082                	ret

00a2b04c <inner_klad_wait_com_route_done>:
  a2b04c:	8138                	push	{ra,s0-s1},-32
  a2b04e:	57fd                	li	a5,-1
  a2b050:	c23e                	sw	a5,4(sp)
  a2b052:	000f 4240 041f      	l.li	s0,0xf4240
  a2b058:	441134b7          	lui	s1,0x44113
  a2b05c:	0844a783          	lw	a5,132(s1) # 44113084 <_gp_+0x436de8c8>
  a2b060:	8b85                	andi	a5,a5,1
  a2b062:	eb85                	bnez	a5,a2b092 <inner_klad_wait_com_route_done+0x46>
  a2b064:	40fc                	lw	a5,68(s1)
  a2b066:	0017e793          	ori	a5,a5,1
  a2b06a:	c43e                	sw	a5,8(sp)
  a2b06c:	c0fc                	sw	a5,68(s1)
  a2b06e:	0ff0000f          	fence
  a2b072:	c202                	sw	zero,4(sp)
  a2b074:	44113737          	lui	a4,0x44113
  a2b078:	08872783          	lw	a5,136(a4) # 44113088 <_gp_+0x436de8cc>
  a2b07c:	5f1c                	lw	a5,56(a4)
  a2b07e:	5f58                	lw	a4,60(a4)
  a2b080:	8fd9                	or	a5,a5,a4
  a2b082:	00f037b3          	snez	a5,a5
  a2b086:	40f007b3          	neg	a5,a5
  a2b08a:	c23e                	sw	a5,4(sp)
  a2b08c:	4792                	lw	a5,4(sp)
  a2b08e:	4512                	lw	a0,4(sp)
  a2b090:	8134                	popret	{ra,s0-s1},32
  a2b092:	4505                	li	a0,1
  a2b094:	147d                	addi	s0,s0,-1
  a2b096:	9feff0ef          	jal	ra,a2a294 <uapi_tcxo_delay_us>
  a2b09a:	f069                	bnez	s0,a2b05c <inner_klad_wait_com_route_done+0x10>
  a2b09c:	bfe1                	j	a2b074 <inner_klad_wait_com_route_done+0x28>

00a2b09e <hal_klad_lock>:
  a2b09e:	8158                	push	{ra,s0-s3},-48
  a2b0a0:	57fd                	li	a5,-1
  a2b0a2:	c63e                	sw	a5,12(sp)
  a2b0a4:	0000 2710 041f      	l.li	s0,0x2710
  a2b0aa:	4905                	li	s2,1
  a2b0ac:	441134b7          	lui	s1,0x44113
  a2b0b0:	4991                	li	s3,4
  a2b0b2:	cb1fe0ef          	jal	ra,a29d62 <crypto_get_cpu_type>
  a2b0b6:	57fd                	li	a5,-1
  a2b0b8:	03251463          	bne	a0,s2,a2b0e0 <hal_klad_lock+0x42>
  a2b0bc:	0724aa23          	sw	s2,116(s1) # 44113074 <_gp_+0x436de8b8>
  a2b0c0:	0ff0000f          	fence
  a2b0c4:	5cf8                	lw	a4,124(s1)
  a2b0c6:	57fd                	li	a5,-1
  a2b0c8:	8b31                	andi	a4,a4,12
  a2b0ca:	01370b63          	beq	a4,s3,a2b0e0 <hal_klad_lock+0x42>
  a2b0ce:	0804a783          	lw	a5,128(s1)
  a2b0d2:	9f81                	uxtb	a5
  a2b0d4:	f5678793          	addi	a5,a5,-170 # 44112f56 <_gp_+0x436de79a>
  a2b0d8:	00f037b3          	snez	a5,a5
  a2b0dc:	40f007b3          	neg	a5,a5
  a2b0e0:	c63e                	sw	a5,12(sp)
  a2b0e2:	47b2                	lw	a5,12(sp)
  a2b0e4:	cb81                	beqz	a5,a2b0f4 <hal_klad_lock+0x56>
  a2b0e6:	4505                	li	a0,1
  a2b0e8:	147d                	addi	s0,s0,-1
  a2b0ea:	9aaff0ef          	jal	ra,a2a294 <uapi_tcxo_delay_us>
  a2b0ee:	f071                	bnez	s0,a2b0b2 <hal_klad_lock+0x14>
  a2b0f0:	557d                	li	a0,-1
  a2b0f2:	8154                	popret	{ra,s0-s3},48
  a2b0f4:	4501                	li	a0,0
  a2b0f6:	bff5                	j	a2b0f2 <hal_klad_lock+0x54>

00a2b0f8 <hal_klad_unlock>:
  a2b0f8:	8018                	push	{ra},-16
  a2b0fa:	c69fe0ef          	jal	ra,a29d62 <crypto_get_cpu_type>
  a2b0fe:	01051cbb          	bnei	a0,1,a2b130 <hal_klad_unlock+0x38>
  a2b102:	44113737          	lui	a4,0x44113
  a2b106:	08072683          	lw	a3,128(a4) # 44113080 <_gp_+0x436de8c4>
  a2b10a:	0aa00613          	li	a2,170
  a2b10e:	4781                	li	a5,0
  a2b110:	9e81                	uxtb	a3
  a2b112:	00c69d63          	bne	a3,a2,a2b12c <hal_klad_unlock+0x34>
  a2b116:	df28                	sw	a0,120(a4)
  a2b118:	0ff0000f          	fence
  a2b11c:	5f7c                	lw	a5,124(a4)
  a2b11e:	0307f793          	andi	a5,a5,48
  a2b122:	17c1                	addi	a5,a5,-16
  a2b124:	0017b793          	seqz	a5,a5
  a2b128:	40f007b3          	neg	a5,a5
  a2b12c:	853e                	mv	a0,a5
  a2b12e:	8014                	popret	{ra},16
  a2b130:	57fd                	li	a5,-1
  a2b132:	bfed                	j	a2b12c <hal_klad_unlock+0x34>

00a2b134 <hal_klad_set_key_crypto_cfg>:
  a2b134:	0a000793          	li	a5,160
  a2b138:	02f60563          	beq	a2,a5,a2b162 <hal_klad_set_key_crypto_cfg+0x2e>
  a2b13c:	00c7e963          	bltu	a5,a2,a2b14e <hal_klad_set_key_crypto_cfg+0x1a>
  a2b140:	05000693          	li	a3,80
  a2b144:	200615bb          	bnei	a2,32,a2b15a <hal_klad_set_key_crypto_cfg+0x26>
  a2b148:	02000693          	li	a3,32
  a2b14c:	a829                	j	a2b166 <hal_klad_set_key_crypto_cfg+0x32>
  a2b14e:	0a100793          	li	a5,161
  a2b152:	04f60363          	beq	a2,a5,a2b198 <hal_klad_set_key_crypto_cfg+0x64>
  a2b156:	0a200693          	li	a3,162
  a2b15a:	00d60663          	beq	a2,a3,a2b166 <hal_klad_set_key_crypto_cfg+0x32>
  a2b15e:	557d                	li	a0,-1
  a2b160:	8082                	ret
  a2b162:	0a000693          	li	a3,160
  a2b166:	44113637          	lui	a2,0x44113
  a2b16a:	4a58                	lw	a4,20(a2)
  a2b16c:	7781                	lui	a5,0xfffe0
  a2b16e:	17fd                	addi	a5,a5,-1 # fffdffff <_gp_+0xff5ab843>
  a2b170:	8ff9                	and	a5,a5,a4
  a2b172:	8985                	andi	a1,a1,1
  a2b174:	22b7a59b          	orshf	a1,a5,a1,sll,17
  a2b178:	77c1                	lui	a5,0xffff0
  a2b17a:	17fd                	addi	a5,a5,-1 # fffeffff <_gp_+0xff5bb843>
  a2b17c:	8905                	andi	a0,a0,1
  a2b17e:	8fed                	and	a5,a5,a1
  a2b180:	20a7a79b          	orshf	a5,a5,a0,sll,16
  a2b184:	757d                	lui	a0,0xfffff
  a2b186:	053d                	addi	a0,a0,15 # fffff00f <_gp_+0xff5ca853>
  a2b188:	8fe9                	and	a5,a5,a0
  a2b18a:	08d7a79b          	orshf	a5,a5,a3,sll,4
  a2b18e:	ca5c                	sw	a5,20(a2)
  a2b190:	0ff0000f          	fence
  a2b194:	4501                	li	a0,0
  a2b196:	8082                	ret
  a2b198:	0a100693          	li	a3,161
  a2b19c:	b7e9                	j	a2b166 <hal_klad_set_key_crypto_cfg+0x32>

00a2b19e <hal_klad_set_key_dest_cfg>:
  a2b19e:	0205633b          	bltui	a0,2,a2b1aa <hal_klad_set_key_dest_cfg+0xc>
  a2b1a2:	02050bbb          	beqi	a0,2,a2b1d0 <hal_klad_set_key_dest_cfg+0x32>
  a2b1a6:	557d                	li	a0,-1
  a2b1a8:	8082                	ret
  a2b1aa:	4705                	li	a4,1
  a2b1ac:	441137b7          	lui	a5,0x44113
  a2b1b0:	4bdc                	lw	a5,20(a5)
  a2b1b2:	9be1                	andi	a5,a5,-8
  a2b1b4:	8fd9                	or	a5,a5,a4
  a2b1b6:	0205133b          	bnei	a0,2,a2b1c2 <hal_klad_set_key_dest_cfg+0x24>
  a2b1ba:	fff3 ffff 071f      	l.li	a4,0xfff3ffff
  a2b1c0:	8ff9                	and	a5,a5,a4
  a2b1c2:	44113737          	lui	a4,0x44113
  a2b1c6:	cb5c                	sw	a5,20(a4)
  a2b1c8:	0ff0000f          	fence
  a2b1cc:	4501                	li	a0,0
  a2b1ce:	8082                	ret
  a2b1d0:	471d                	li	a4,7
  a2b1d2:	dde9                	beqz	a1,a2b1ac <hal_klad_set_key_dest_cfg+0xe>
  a2b1d4:	bfc9                	j	a2b1a6 <hal_klad_set_key_dest_cfg+0x8>

00a2b1d6 <hal_klad_set_key_secure_cfg>:
  a2b1d6:	c539                	beqz	a0,a2b224 <hal_klad_set_key_secure_cfg+0x4e>
  a2b1d8:	441136b7          	lui	a3,0x44113
  a2b1dc:	4e9c                	lw	a5,24(a3)
  a2b1de:	3118                	lbu	a4,1(a0)
  a2b1e0:	fdf7f793          	andi	a5,a5,-33
  a2b1e4:	8b05                	andi	a4,a4,1
  a2b1e6:	0ae7a79b          	orshf	a5,a5,a4,sll,5
  a2b1ea:	2138                	lbu	a4,2(a0)
  a2b1ec:	9bbd                	andi	a5,a5,-17
  a2b1ee:	8b05                	andi	a4,a4,1
  a2b1f0:	08e7a79b          	orshf	a5,a5,a4,sll,4
  a2b1f4:	3138                	lbu	a4,3(a0)
  a2b1f6:	9bdd                	andi	a5,a5,-9
  a2b1f8:	8b05                	andi	a4,a4,1
  a2b1fa:	06e7a79b          	orshf	a5,a5,a4,sll,3
  a2b1fe:	2158                	lbu	a4,4(a0)
  a2b200:	9bed                	andi	a5,a5,-5
  a2b202:	8b05                	andi	a4,a4,1
  a2b204:	04e7a79b          	orshf	a5,a5,a4,sll,2
  a2b208:	3158                	lbu	a4,5(a0)
  a2b20a:	9bf5                	andi	a5,a5,-3
  a2b20c:	8b05                	andi	a4,a4,1
  a2b20e:	02e7a79b          	orshf	a5,a5,a4,sll,1
  a2b212:	2118                	lbu	a4,0(a0)
  a2b214:	9bf9                	andi	a5,a5,-2
  a2b216:	8b05                	andi	a4,a4,1
  a2b218:	8fd9                	or	a5,a5,a4
  a2b21a:	ce9c                	sw	a5,24(a3)
  a2b21c:	0ff0000f          	fence
  a2b220:	4501                	li	a0,0
  a2b222:	8082                	ret
  a2b224:	557d                	li	a0,-1
  a2b226:	8082                	ret

00a2b228 <hal_klad_set_key_addr>:
  a2b228:	e105                	bnez	a0,a2b248 <hal_klad_set_key_addr+0x20>
  a2b22a:	44113737          	lui	a4,0x44113
  a2b22e:	4b1c                	lw	a5,16(a4)
  a2b230:	0586                	slli	a1,a1,0x1
  a2b232:	3fe5f593          	andi	a1,a1,1022
  a2b236:	c007f793          	andi	a5,a5,-1024
  a2b23a:	8ddd                	or	a1,a1,a5
  a2b23c:	cb0c                	sw	a1,16(a4)
  a2b23e:	0ff0000f          	fence
  a2b242:	4781                	li	a5,0
  a2b244:	853e                	mv	a0,a5
  a2b246:	8082                	ret
  a2b248:	57fd                	li	a5,-1
  a2b24a:	01f51ebb          	bnei	a0,1,a2b244 <hal_klad_set_key_addr+0x1c>
  a2b24e:	44113737          	lui	a4,0x44113
  a2b252:	4b1c                	lw	a5,16(a4)
  a2b254:	3ff5f593          	andi	a1,a1,1023
  a2b258:	bff9                	j	a2b236 <hal_klad_set_key_addr+0xe>

00a2b25a <hal_klad_start_com_route>:
  a2b25a:	8148                	push	{ra,s0-s2},-32
  a2b25c:	57fd                	li	a5,-1
  a2b25e:	c23e                	sw	a5,4(sp)
  a2b260:	c402                	sw	zero,8(sp)
  a2b262:	c602                	sw	zero,12(sp)
  a2b264:	cdc5                	beqz	a1,a2b31c <hal_klad_start_com_route+0xc2>
  a2b266:	41d8                	lw	a4,4(a1)
  a2b268:	cf19                	beqz	a4,a2b286 <hal_klad_start_com_route+0x2c>
  a2b26a:	8932                	mv	s2,a2
  a2b26c:	84ae                	mv	s1,a1
  a2b26e:	862a                	mv	a2,a0
  a2b270:	0074                	addi	a3,sp,12
  a2b272:	458d                	li	a1,3
  a2b274:	00a3 3e78 051f      	l.li	a0,0xa33e78
  a2b27a:	b01fe0ef          	jal	ra,a29d7a <crypto_get_value_by_index>
  a2b27e:	c22a                	sw	a0,4(sp)
  a2b280:	4792                	lw	a5,4(sp)
  a2b282:	c781                	beqz	a5,a2b28a <hal_klad_start_com_route+0x30>
  a2b284:	4792                	lw	a5,4(sp)
  a2b286:	853e                	mv	a0,a5
  a2b288:	8144                	popret	{ra,s0-s2},32
  a2b28a:	20b0                	lbu	a2,2(s1)
  a2b28c:	0034                	addi	a3,sp,8
  a2b28e:	458d                	li	a1,3
  a2b290:	00a3 3e60 051f      	l.li	a0,0xa33e60
  a2b296:	ae5fe0ef          	jal	ra,a29d7a <crypto_get_value_by_index>
  a2b29a:	c22a                	sw	a0,4(sp)
  a2b29c:	4792                	lw	a5,4(sp)
  a2b29e:	f3fd                	bnez	a5,a2b284 <hal_klad_start_com_route+0x2a>
  a2b2a0:	20bc                	lbu	a5,2(s1)
  a2b2a2:	4501                	li	a0,0
  a2b2a4:	e391                	bnez	a5,a2b2a8 <hal_klad_start_com_route+0x4e>
  a2b2a6:	3088                	lbu	a0,1(s1)
  a2b2a8:	00091463          	bnez	s2,a2b2b0 <hal_klad_start_com_route+0x56>
  a2b2ac:	d85ff0ef          	jal	ra,a2b030 <inner_klad_set_key_odd>
  a2b2b0:	4422                	lw	s0,8(sp)
  a2b2b2:	47b2                	lw	a5,12(sp)
  a2b2b4:	880d                	andi	s0,s0,3
  a2b2b6:	041a                	slli	s0,s0,0x6
  a2b2b8:	8bfd                	andi	a5,a5,31
  a2b2ba:	00146413          	ori	s0,s0,1
  a2b2be:	10f4241b          	orshf	s0,s0,a5,sll,8
  a2b2c2:	441137b7          	lui	a5,0x44113
  a2b2c6:	0887a223          	sw	s0,132(a5) # 44113084 <_gp_+0x436de8c8>
  a2b2ca:	0ff0000f          	fence
  a2b2ce:	d7fff0ef          	jal	ra,a2b04c <inner_klad_wait_com_route_done>
  a2b2d2:	c22a                	sw	a0,4(sp)
  a2b2d4:	4792                	lw	a5,4(sp)
  a2b2d6:	f7dd                	bnez	a5,a2b284 <hal_klad_start_com_route+0x2a>
  a2b2d8:	20bc                	lbu	a5,2(s1)
  a2b2da:	d7cd                	beqz	a5,a2b284 <hal_klad_start_com_route+0x2a>
  a2b2dc:	00091563          	bnez	s2,a2b2e6 <hal_klad_start_com_route+0x8c>
  a2b2e0:	4505                	li	a0,1
  a2b2e2:	d4fff0ef          	jal	ra,a2b030 <inner_klad_set_key_odd>
  a2b2e6:	47a2                	lw	a5,8(sp)
  a2b2e8:	f3f47413          	andi	s0,s0,-193
  a2b2ec:	ffff e0ff 071f      	l.li	a4,0xffffe0ff
  a2b2f2:	8b8d                	andi	a5,a5,3
  a2b2f4:	0cf4241b          	orshf	s0,s0,a5,sll,6
  a2b2f8:	47b2                	lw	a5,12(sp)
  a2b2fa:	8c79                	and	s0,s0,a4
  a2b2fc:	8bfd                	andi	a5,a5,31
  a2b2fe:	10f4241b          	orshf	s0,s0,a5,sll,8
  a2b302:	00146413          	ori	s0,s0,1
  a2b306:	441137b7          	lui	a5,0x44113
  a2b30a:	0887a223          	sw	s0,132(a5) # 44113084 <_gp_+0x436de8c8>
  a2b30e:	0ff0000f          	fence
  a2b312:	d3bff0ef          	jal	ra,a2b04c <inner_klad_wait_com_route_done>
  a2b316:	c22a                	sw	a0,4(sp)
  a2b318:	4792                	lw	a5,4(sp)
  a2b31a:	b7ad                	j	a2b284 <hal_klad_start_com_route+0x2a>
  a2b31c:	57fd                	li	a5,-1
  a2b31e:	b7a5                	j	a2b286 <hal_klad_start_com_route+0x2c>

00a2b320 <hal_fapc_set_region_addr>:
  a2b320:	040577bb          	bgeui	a0,4,a2b33e <hal_fapc_set_region_addr+0x1e>
  a2b324:	1200 0400 079f      	l.li	a5,0x12000400
  a2b32a:	953e                	add	a0,a0,a5
  a2b32c:	050a                	slli	a0,a0,0x2
  a2b32e:	c10c                	sw	a1,0(a0)
  a2b330:	0ff0000f          	fence
  a2b334:	c130                	sw	a2,64(a0)
  a2b336:	0ff0000f          	fence
  a2b33a:	4501                	li	a0,0
  a2b33c:	8082                	ret
  a2b33e:	557d                	li	a0,-1
  a2b340:	8082                	ret

00a2b342 <hal_fapc_set_region_permission>:
  a2b342:	4501                	li	a0,0
  a2b344:	8082                	ret

00a2b346 <hal_fapc_set_region_mac_addr>:
  a2b346:	4501                	li	a0,0
  a2b348:	8082                	ret

00a2b34a <hal_fapc_set_region_mode>:
  a2b34a:	0405733b          	bgeui	a0,4,a2b356 <hal_fapc_set_region_mode+0xc>
  a2b34e:	c591                	beqz	a1,a2b35a <hal_fapc_set_region_mode+0x10>
  a2b350:	4709                	li	a4,2
  a2b352:	020582bb          	beqi	a1,2,a2b35c <hal_fapc_set_region_mode+0x12>
  a2b356:	557d                	li	a0,-1
  a2b358:	8082                	ret
  a2b35a:	4701                	li	a4,0
  a2b35c:	480016b7          	lui	a3,0x48001
  a2b360:	1806a603          	lw	a2,384(a3) # 48001180 <_gp_+0x475cc9c4>
  a2b364:	0506                	slli	a0,a0,0x1
  a2b366:	478d                	li	a5,3
  a2b368:	00a797b3          	sll	a5,a5,a0
  a2b36c:	fff7c793          	not	a5,a5
  a2b370:	8ff1                	and	a5,a5,a2
  a2b372:	00a71733          	sll	a4,a4,a0
  a2b376:	8fd9                	or	a5,a5,a4
  a2b378:	18f6a023          	sw	a5,384(a3)
  a2b37c:	0ff0000f          	fence
  a2b380:	4501                	li	a0,0
  a2b382:	8082                	ret

00a2b384 <hal_fapc_region_enable>:
  a2b384:	4501                	li	a0,0
  a2b386:	8082                	ret

00a2b388 <hal_fapc_region_lock>:
  a2b388:	0405783b          	bgeui	a0,4,a2b3a8 <hal_fapc_region_lock+0x20>
  a2b38c:	48001737          	lui	a4,0x48001
  a2b390:	22072683          	lw	a3,544(a4) # 48001220 <_gp_+0x475cca64>
  a2b394:	4785                	li	a5,1
  a2b396:	00a79533          	sll	a0,a5,a0
  a2b39a:	8d55                	or	a0,a0,a3
  a2b39c:	22a72023          	sw	a0,544(a4)
  a2b3a0:	0ff0000f          	fence
  a2b3a4:	4501                	li	a0,0
  a2b3a6:	8082                	ret
  a2b3a8:	557d                	li	a0,-1
  a2b3aa:	8082                	ret

00a2b3ac <hal_fapc_set_region_iv>:
  a2b3ac:	e131                	bnez	a0,a2b3f0 <hal_fapc_set_region_iv+0x44>
  a2b3ae:	557d                	li	a0,-1
  a2b3b0:	c1a9                	beqz	a1,a2b3f2 <hal_fapc_set_region_iv+0x46>
  a2b3b2:	1016103b          	bnei	a2,16,a2b3f2 <hal_fapc_set_region_iv+0x46>
  a2b3b6:	4198                	lw	a4,0(a1)
  a2b3b8:	480017b7          	lui	a5,0x48001
  a2b3bc:	62e7a023          	sw	a4,1568(a5) # 48001620 <_gp_+0x475cce64>
  a2b3c0:	0ff0000f          	fence
  a2b3c4:	41d8                	lw	a4,4(a1)
  a2b3c6:	62e7a223          	sw	a4,1572(a5)
  a2b3ca:	0ff0000f          	fence
  a2b3ce:	4598                	lw	a4,8(a1)
  a2b3d0:	62e7a423          	sw	a4,1576(a5)
  a2b3d4:	0ff0000f          	fence
  a2b3d8:	45d8                	lw	a4,12(a1)
  a2b3da:	62e7a623          	sw	a4,1580(a5)
  a2b3de:	0ff0000f          	fence
  a2b3e2:	4705                	li	a4,1
  a2b3e4:	60e7a023          	sw	a4,1536(a5)
  a2b3e8:	0ff0000f          	fence
  a2b3ec:	4501                	li	a0,0
  a2b3ee:	8082                	ret
  a2b3f0:	557d                	li	a0,-1
  a2b3f2:	8082                	ret

00a2b3f4 <hal_fapc_set_region_iv_start_addr>:
  a2b3f4:	0405763b          	bgeui	a0,4,a2b40c <hal_fapc_set_region_iv_start_addr+0x18>
  a2b3f8:	1200 0590 079f      	l.li	a5,0x12000590
  a2b3fe:	953e                	add	a0,a0,a5
  a2b400:	050a                	slli	a0,a0,0x2
  a2b402:	c10c                	sw	a1,0(a0)
  a2b404:	0ff0000f          	fence
  a2b408:	4501                	li	a0,0
  a2b40a:	8082                	ret
  a2b40c:	557d                	li	a0,-1
  a2b40e:	8082                	ret

00a2b410 <hal_tcxo_init>:
  a2b410:	8018                	push	{ra},-16
  a2b412:	28a9                	jal	ra,a2b46c <hal_tcxo_v150_regs_init>
  a2b414:	e105                	bnez	a0,a2b434 <hal_tcxo_init+0x24>
  a2b416:	00a05737          	lui	a4,0xa05
  a2b41a:	74872683          	lw	a3,1864(a4) # a05748 <g_tcxo_regs>
  a2b41e:	429c                	lw	a5,0(a3)
  a2b420:	0047e793          	ori	a5,a5,4
  a2b424:	c29c                	sw	a5,0(a3)
  a2b426:	74872703          	lw	a4,1864(a4)
  a2b42a:	431c                	lw	a5,0(a4)
  a2b42c:	0027e793          	ori	a5,a5,2
  a2b430:	c31c                	sw	a5,0(a4)
  a2b432:	8014                	popret	{ra},16
  a2b434:	8000 1180 051f      	l.li	a0,0x80001180
  a2b43a:	bfe5                	j	a2b432 <hal_tcxo_init+0x22>

00a2b43c <hal_tcxo_get>:
  a2b43c:	00a057b7          	lui	a5,0xa05
  a2b440:	7487a683          	lw	a3,1864(a5) # a05748 <g_tcxo_regs>
  a2b444:	4605                	li	a2,1
  a2b446:	4298                	lw	a4,0(a3)
  a2b448:	00176713          	ori	a4,a4,1
  a2b44c:	c298                	sw	a4,0(a3)
  a2b44e:	56fd                	li	a3,-1
  a2b450:	873e                	mv	a4,a5
  a2b452:	74872783          	lw	a5,1864(a4)
  a2b456:	439c                	lw	a5,0(a5)
  a2b458:	8391                	srli	a5,a5,0x4
  a2b45a:	8b85                	andi	a5,a5,1
  a2b45c:	00c78763          	beq	a5,a2,a2b46a <hal_tcxo_get+0x2e>
  a2b460:	16fd                	addi	a3,a3,-1
  a2b462:	fae5                	bnez	a3,a2b452 <hal_tcxo_get+0x16>
  a2b464:	4501                	li	a0,0
  a2b466:	4581                	li	a1,0
  a2b468:	8082                	ret
  a2b46a:	a00d                	j	a2b48c <hal_tcxo_reg_count_get>

00a2b46c <hal_tcxo_v150_regs_init>:
  a2b46c:	8018                	push	{ra},-16
  a2b46e:	45b000ef          	jal	ra,a2c0c8 <tcxo_porting_base_addr_get>
  a2b472:	c909                	beqz	a0,a2b484 <hal_tcxo_v150_regs_init+0x18>
  a2b474:	455000ef          	jal	ra,a2c0c8 <tcxo_porting_base_addr_get>
  a2b478:	00a0 5748 079f      	l.li	a5,0xa05748
  a2b47e:	c388                	sw	a0,0(a5)
  a2b480:	4501                	li	a0,0
  a2b482:	8014                	popret	{ra},16
  a2b484:	8000 1180 051f      	l.li	a0,0x80001180
  a2b48a:	bfe5                	j	a2b482 <hal_tcxo_v150_regs_init+0x16>

00a2b48c <hal_tcxo_reg_count_get>:
  a2b48c:	00a0 5748 079f      	l.li	a5,0xa05748
  a2b492:	439c                	lw	a5,0(a5)
  a2b494:	478c                	lw	a1,8(a5)
  a2b496:	43c8                	lw	a0,4(a5)
  a2b498:	8082                	ret

00a2b49a <hal_uart_register_funcs>:
  a2b49a:	030575bb          	bgeui	a0,3,a2b4b0 <hal_uart_register_funcs+0x16>
  a2b49e:	c989                	beqz	a1,a2b4b0 <hal_uart_register_funcs+0x16>
  a2b4a0:	00a0 574c 079f      	l.li	a5,0xa0574c
  a2b4a6:	04a7851b          	addshf	a0,a5,a0,sll,2
  a2b4aa:	c10c                	sw	a1,0(a0)
  a2b4ac:	4501                	li	a0,0
  a2b4ae:	8082                	ret
  a2b4b0:	80000537          	lui	a0,0x80000
  a2b4b4:	0505                	addi	a0,a0,1 # 80000001 <_gp_+0x7f5cb845>
  a2b4b6:	8082                	ret

00a2b4b8 <hal_uart_init>:
  a2b4b8:	8128                	push	{ra,s0},-32
  a2b4ba:	842a                	mv	s0,a0
  a2b4bc:	c62e                	sw	a1,12(sp)
  a2b4be:	c432                	sw	a2,8(sp)
  a2b4c0:	c236                	sw	a3,4(sp)
  a2b4c2:	c03a                	sw	a4,0(sp)
  a2b4c4:	347000ef          	jal	ra,a2c00a <uart_port_register_hal_funcs>
  a2b4c8:	00a0 574c 079f      	l.li	a5,0xa0574c
  a2b4ce:	0487879b          	addshf	a5,a5,s0,sll,2
  a2b4d2:	439c                	lw	a5,0(a5)
  a2b4d4:	cb99                	beqz	a5,a2b4ea <hal_uart_init+0x32>
  a2b4d6:	4692                	lw	a3,4(sp)
  a2b4d8:	ca89                	beqz	a3,a2b4ea <hal_uart_init+0x32>
  a2b4da:	0007a303          	lw	t1,0(a5)
  a2b4de:	4702                	lw	a4,0(sp)
  a2b4e0:	4622                	lw	a2,8(sp)
  a2b4e2:	45b2                	lw	a1,12(sp)
  a2b4e4:	8522                	mv	a0,s0
  a2b4e6:	8120                	pop	{ra,s0},32
  a2b4e8:	8302                	jr	t1
  a2b4ea:	8000 1047 051f      	l.li	a0,0x80001047
  a2b4f0:	8124                	popret	{ra,s0},32

00a2b4f2 <hal_uart_write>:
  a2b4f2:	00a0 574c 079f      	l.li	a5,0xa0574c
  a2b4f8:	04a7879b          	addshf	a5,a5,a0,sll,2
  a2b4fc:	439c                	lw	a5,0(a5)
  a2b4fe:	00c7a303          	lw	t1,12(a5)
  a2b502:	8302                	jr	t1

00a2b504 <hal_uart_read>:
  a2b504:	00a0 574c 079f      	l.li	a5,0xa0574c
  a2b50a:	04a7879b          	addshf	a5,a5,a0,sll,2
  a2b50e:	439c                	lw	a5,0(a5)
  a2b510:	0107a303          	lw	t1,16(a5)
  a2b514:	8302                	jr	t1

00a2b516 <hal_uart_ctrl>:
  a2b516:	00a0 574c 079f      	l.li	a5,0xa0574c
  a2b51c:	04a7879b          	addshf	a5,a5,a0,sll,2
  a2b520:	439c                	lw	a5,0(a5)
  a2b522:	c781                	beqz	a5,a2b52a <hal_uart_ctrl+0x14>
  a2b524:	0087a303          	lw	t1,8(a5)
  a2b528:	8302                	jr	t1
  a2b52a:	8000 1047 051f      	l.li	a0,0x80001047
  a2b530:	8082                	ret

00a2b532 <hal_uart_v151_ctrl_get_rxfifo_passnum>:
  a2b532:	c609                	beqz	a2,a2b53c <hal_uart_v151_ctrl_get_rxfifo_passnum+0xa>
  a2b534:	57fd                	li	a5,-1
  a2b536:	c21c                	sw	a5,0(a2)
  a2b538:	4501                	li	a0,0
  a2b53a:	8082                	ret
  a2b53c:	80000537          	lui	a0,0x80000
  a2b540:	0505                	addi	a0,a0,1 # 80000001 <_gp_+0x7f5cb845>
  a2b542:	8082                	ret

00a2b544 <hal_uart_v151_get_uart_rxfifo_threshold>:
  a2b544:	00a0 5774 079f      	l.li	a5,0xa05774
  a2b54a:	953e                	add	a0,a0,a5
  a2b54c:	2114                	lbu	a3,0(a0)
  a2b54e:	03e00713          	li	a4,62
  a2b552:	0306f3bb          	bgeui	a3,3,a2b560 <hal_uart_v151_get_uart_rxfifo_threshold+0x1c>
  a2b556:	00a3 269c 079f      	l.li	a5,0xa3269c
  a2b55c:	97b6                	add	a5,a5,a3
  a2b55e:	2398                	lbu	a4,0(a5)
  a2b560:	c218                	sw	a4,0(a2)
  a2b562:	4501                	li	a0,0
  a2b564:	8082                	ret

00a2b566 <hal_uart_v151_deinit>:
  a2b566:	00a0 5758 079f      	l.li	a5,0xa05758
  a2b56c:	04a7851b          	addshf	a0,a5,a0,sll,2
  a2b570:	00052023          	sw	zero,0(a0)
  a2b574:	4501                	li	a0,0
  a2b576:	8082                	ret

00a2b578 <hal_uart_set_diven>:
  a2b578:	00a0 5768 079f      	l.li	a5,0xa05768
  a2b57e:	04a7851b          	addshf	a0,a5,a0,sll,2
  a2b582:	4118                	lw	a4,0(a0)
  a2b584:	8985                	andi	a1,a1,1
  a2b586:	471c                	lw	a5,8(a4)
  a2b588:	9bf9                	andi	a5,a5,-2
  a2b58a:	8fcd                	or	a5,a5,a1
  a2b58c:	c71c                	sw	a5,8(a4)
  a2b58e:	8082                	ret

00a2b590 <hal_uart_is_tx_fifo_full>:
  a2b590:	00a0 5768 079f      	l.li	a5,0xa05768
  a2b596:	04a7851b          	addshf	a0,a5,a0,sll,2
  a2b59a:	411c                	lw	a5,0(a0)
  a2b59c:	4501                	li	a0,0
  a2b59e:	43fc                	lw	a5,68(a5)
  a2b5a0:	8b85                	andi	a5,a5,1
  a2b5a2:	a21c                	sb	a5,0(a2)
  a2b5a4:	8082                	ret

00a2b5a6 <hal_uart_is_tx_fifo_empty>:
  a2b5a6:	00a0 5768 079f      	l.li	a5,0xa05768
  a2b5ac:	04a7851b          	addshf	a0,a5,a0,sll,2
  a2b5b0:	411c                	lw	a5,0(a0)
  a2b5b2:	4501                	li	a0,0
  a2b5b4:	43fc                	lw	a5,68(a5)
  a2b5b6:	8385                	srli	a5,a5,0x1
  a2b5b8:	8b85                	andi	a5,a5,1
  a2b5ba:	a21c                	sb	a5,0(a2)
  a2b5bc:	8082                	ret

00a2b5be <hal_uart_is_busy>:
  a2b5be:	00a0 5768 079f      	l.li	a5,0xa05768
  a2b5c4:	04a7851b          	addshf	a0,a5,a0,sll,2
  a2b5c8:	411c                	lw	a5,0(a0)
  a2b5ca:	4501                	li	a0,0
  a2b5cc:	43fc                	lw	a5,68(a5)
  a2b5ce:	9f81                	uxtb	a5
  a2b5d0:	8385                	srli	a5,a5,0x1
  a2b5d2:	0017c793          	xori	a5,a5,1
  a2b5d6:	8b85                	andi	a5,a5,1
  a2b5d8:	a21c                	sb	a5,0(a2)
  a2b5da:	8082                	ret

00a2b5dc <hal_uart_is_rx_fifo_empty>:
  a2b5dc:	00a0 5768 079f      	l.li	a5,0xa05768
  a2b5e2:	04a7851b          	addshf	a0,a5,a0,sll,2
  a2b5e6:	411c                	lw	a5,0(a0)
  a2b5e8:	4501                	li	a0,0
  a2b5ea:	43fc                	lw	a5,68(a5)
  a2b5ec:	838d                	srli	a5,a5,0x3
  a2b5ee:	8b85                	andi	a5,a5,1
  a2b5f0:	a21c                	sb	a5,0(a2)
  a2b5f2:	8082                	ret

00a2b5f4 <hal_uart_v151_write>:
  a2b5f4:	00a0 5768 079f      	l.li	a5,0xa05768
  a2b5fa:	04a7851b          	addshf	a0,a5,a0,sll,2
  a2b5fe:	e219                	bnez	a2,a2b604 <hal_uart_v151_write+0x10>
  a2b600:	4501                	li	a0,0
  a2b602:	8082                	ret
  a2b604:	4118                	lw	a4,0(a0)
  a2b606:	437c                	lw	a5,68(a4)
  a2b608:	8b85                	andi	a5,a5,1
  a2b60a:	fbf5                	bnez	a5,a2b5fe <hal_uart_v151_write+0xa>
  a2b60c:	0585                	addi	a1,a1,1
  a2b60e:	fff5c783          	lbu	a5,-1(a1)
  a2b612:	167d                	addi	a2,a2,-1 # 44112fff <_gp_+0x436de843>
  a2b614:	9e21                	uxth	a2
  a2b616:	c35c                	sw	a5,4(a4)
  a2b618:	b7dd                	j	a2b5fe <hal_uart_v151_write+0xa>

00a2b61a <hal_uart_v151_read>:
  a2b61a:	00a0 5768 071f      	l.li	a4,0xa05768
  a2b620:	4781                	li	a5,0
  a2b622:	04a7051b          	addshf	a0,a4,a0,sll,2
  a2b626:	00c7c463          	blt	a5,a2,a2b62e <hal_uart_v151_read+0x14>
  a2b62a:	853e                	mv	a0,a5
  a2b62c:	8082                	ret
  a2b62e:	4114                	lw	a3,0(a0)
  a2b630:	42f8                	lw	a4,68(a3)
  a2b632:	8b21                	andi	a4,a4,8
  a2b634:	fb7d                	bnez	a4,a2b62a <hal_uart_v151_read+0x10>
  a2b636:	42d4                	lw	a3,4(a3)
  a2b638:	00f58733          	add	a4,a1,a5
  a2b63c:	0785                	addi	a5,a5,1
  a2b63e:	a314                	sb	a3,0(a4)
  a2b640:	b7dd                	j	a2b626 <hal_uart_v151_read+0xc>

00a2b642 <hal_uart_v151_ctrl>:
  a2b642:	00a3 26a0 079f      	l.li	a5,0xa326a0
  a2b648:	04b7879b          	addshf	a5,a5,a1,sll,2
  a2b64c:	0007a303          	lw	t1,0(a5)
  a2b650:	00030363          	beqz	t1,a2b656 <hal_uart_v151_ctrl+0x14>
  a2b654:	8302                	jr	t1
  a2b656:	8000 1047 051f      	l.li	a0,0x80001047
  a2b65c:	8082                	ret

00a2b65e <hal_uart_init_fifo>:
  a2b65e:	00a0 5768 079f      	l.li	a5,0xa05768
  a2b664:	04a7879b          	addshf	a5,a5,a0,sll,2
  a2b668:	4398                	lw	a4,0(a5)
  a2b66a:	0035f693          	andi	a3,a1,3
  a2b66e:	535c                	lw	a5,36(a4)
  a2b670:	9bcd                	andi	a5,a5,-13
  a2b672:	04d7a79b          	orshf	a5,a5,a3,sll,2
  a2b676:	9bf1                	andi	a5,a5,-4
  a2b678:	00367693          	andi	a3,a2,3
  a2b67c:	8fd5                	or	a5,a5,a3
  a2b67e:	0107e793          	ori	a5,a5,16
  a2b682:	d35c                	sw	a5,36(a4)
  a2b684:	00a0 5774 079f      	l.li	a5,0xa05774
  a2b68a:	97aa                	add	a5,a5,a0
  a2b68c:	a38c                	sb	a1,0(a5)
  a2b68e:	00a0 5778 079f      	l.li	a5,0xa05778
  a2b694:	953e                	add	a0,a0,a5
  a2b696:	a110                	sb	a2,0(a0)
  a2b698:	8082                	ret

00a2b69a <hal_uart_v151_ctrl_set_txfifo_int_level>:
  a2b69a:	0406633b          	bltui	a2,4,a2b6a6 <hal_uart_v151_ctrl_set_txfifo_int_level+0xc>
  a2b69e:	80000537          	lui	a0,0x80000
  a2b6a2:	0505                	addi	a0,a0,1 # 80000001 <_gp_+0x7f5cb845>
  a2b6a4:	8082                	ret
  a2b6a6:	8018                	push	{ra},-16
  a2b6a8:	00a0 5774 079f      	l.li	a5,0xa05774
  a2b6ae:	97aa                	add	a5,a5,a0
  a2b6b0:	238c                	lbu	a1,0(a5)
  a2b6b2:	9e01                	uxtb	a2
  a2b6b4:	376d                	jal	ra,a2b65e <hal_uart_init_fifo>
  a2b6b6:	4501                	li	a0,0
  a2b6b8:	8014                	popret	{ra},16

00a2b6ba <hal_uart_v151_ctrl_set_rxfifo_int_level>:
  a2b6ba:	0406633b          	bltui	a2,4,a2b6c6 <hal_uart_v151_ctrl_set_rxfifo_int_level+0xc>
  a2b6be:	80000537          	lui	a0,0x80000
  a2b6c2:	0505                	addi	a0,a0,1 # 80000001 <_gp_+0x7f5cb845>
  a2b6c4:	8082                	ret
  a2b6c6:	8018                	push	{ra},-16
  a2b6c8:	00a0 5778 079f      	l.li	a5,0xa05778
  a2b6ce:	97aa                	add	a5,a5,a0
  a2b6d0:	85b2                	mv	a1,a2
  a2b6d2:	2390                	lbu	a2,0(a5)
  a2b6d4:	9d81                	uxtb	a1
  a2b6d6:	3761                	jal	ra,a2b65e <hal_uart_init_fifo>
  a2b6d8:	4501                	li	a0,0
  a2b6da:	8014                	popret	{ra},16

00a2b6dc <hal_uart_set_baud_rate>:
  a2b6dc:	c1a1                	beqz	a1,a2b71c <hal_uart_set_baud_rate+0x40>
  a2b6de:	8048                	push	{ra,s0-s2},-16
  a2b6e0:	0592                	slli	a1,a1,0x4
  a2b6e2:	02b67433          	remu	s0,a2,a1
  a2b6e6:	892a                	mv	s2,a0
  a2b6e8:	02b654b3          	divu	s1,a2,a1
  a2b6ec:	041a                	slli	s0,s0,0x6
  a2b6ee:	02b45433          	divu	s0,s0,a1
  a2b6f2:	4585                	li	a1,1
  a2b6f4:	3551                	jal	ra,a2b578 <hal_uart_set_diven>
  a2b6f6:	00a0 5768 079f      	l.li	a5,0xa05768
  a2b6fc:	0527879b          	addshf	a5,a5,s2,sll,2
  a2b700:	439c                	lw	a5,0(a5)
  a2b702:	0ff4f713          	andi	a4,s1,255
  a2b706:	9ca1                	uxth	s1
  a2b708:	cb98                	sw	a4,16(a5)
  a2b70a:	80a1                	srli	s1,s1,0x8
  a2b70c:	c7c4                	sw	s1,12(a5)
  a2b70e:	4581                	li	a1,0
  a2b710:	854a                	mv	a0,s2
  a2b712:	03f47413          	andi	s0,s0,63
  a2b716:	cbc0                	sw	s0,20(a5)
  a2b718:	8040                	pop	{ra,s0-s2},16
  a2b71a:	bdb9                	j	a2b578 <hal_uart_set_diven>
  a2b71c:	8082                	ret

00a2b71e <hal_uart_set_data_bits>:
  a2b71e:	00a0 5768 079f      	l.li	a5,0xa05768
  a2b724:	04a7851b          	addshf	a0,a5,a0,sll,2
  a2b728:	4118                	lw	a4,0(a0)
  a2b72a:	898d                	andi	a1,a1,3
  a2b72c:	471c                	lw	a5,8(a4)
  a2b72e:	9bcd                	andi	a5,a5,-13
  a2b730:	04b7a79b          	orshf	a5,a5,a1,sll,2
  a2b734:	c71c                	sw	a5,8(a4)
  a2b736:	8082                	ret

00a2b738 <hal_uart_set_stop_bits>:
  a2b738:	00a0 5768 079f      	l.li	a5,0xa05768
  a2b73e:	04a7851b          	addshf	a0,a5,a0,sll,2
  a2b742:	4118                	lw	a4,0(a0)
  a2b744:	8985                	andi	a1,a1,1
  a2b746:	471c                	lw	a5,8(a4)
  a2b748:	f7f7f793          	andi	a5,a5,-129
  a2b74c:	0eb7a79b          	orshf	a5,a5,a1,sll,7
  a2b750:	c71c                	sw	a5,8(a4)
  a2b752:	8082                	ret

00a2b754 <hal_uart_auto_flow_ctl_en>:
  a2b754:	00a0 5768 079f      	l.li	a5,0xa05768
  a2b75a:	04a7851b          	addshf	a0,a5,a0,sll,2
  a2b75e:	4118                	lw	a4,0(a0)
  a2b760:	8985                	andi	a1,a1,1
  a2b762:	575c                	lw	a5,44(a4)
  a2b764:	9be9                	andi	a5,a5,-6
  a2b766:	8fcd                	or	a5,a5,a1
  a2b768:	04b7a59b          	orshf	a1,a5,a1,sll,2
  a2b76c:	d74c                	sw	a1,44(a4)
  a2b76e:	8082                	ret

00a2b770 <hal_uart_enable_interrupt>:
  a2b770:	00a0 5768 079f      	l.li	a5,0xa05768
  a2b776:	04a7851b          	addshf	a0,a5,a0,sll,2
  a2b77a:	4114                	lw	a3,0(a0)
  a2b77c:	4e9c                	lw	a5,24(a3)
  a2b77e:	0e05f73b          	bgeui	a1,14,a2b79a <hal_uart_enable_interrupt+0x2a>
  a2b782:	00a32737          	lui	a4,0xa32
  a2b786:	66470713          	addi	a4,a4,1636 # a32664 <g_sm3_ival+0x34>
  a2b78a:	04b7059b          	addshf	a1,a4,a1,sll,2
  a2b78e:	4198                	lw	a4,0(a1)
  a2b790:	8702                	jr	a4
  a2b792:	8a05                	andi	a2,a2,1
  a2b794:	9bdd                	andi	a5,a5,-9
  a2b796:	06c7a79b          	orshf	a5,a5,a2,sll,3
  a2b79a:	ce9c                	sw	a5,24(a3)
  a2b79c:	8082                	ret
  a2b79e:	8a05                	andi	a2,a2,1
  a2b7a0:	9bed                	andi	a5,a5,-5
  a2b7a2:	04c7a79b          	orshf	a5,a5,a2,sll,2
  a2b7a6:	bfd5                	j	a2b79a <hal_uart_enable_interrupt+0x2a>
  a2b7a8:	8a05                	andi	a2,a2,1
  a2b7aa:	9bf9                	andi	a5,a5,-2
  a2b7ac:	8fd1                	or	a5,a5,a2
  a2b7ae:	b7f5                	j	a2b79a <hal_uart_enable_interrupt+0x2a>
  a2b7b0:	8a05                	andi	a2,a2,1
  a2b7b2:	9bf5                	andi	a5,a5,-3
  a2b7b4:	02c7a79b          	orshf	a5,a5,a2,sll,1
  a2b7b8:	b7cd                	j	a2b79a <hal_uart_enable_interrupt+0x2a>

00a2b7ba <hal_uart_en_para_err_int>:
  a2b7ba:	8018                	push	{ra},-16
  a2b7bc:	00c03633          	snez	a2,a2
  a2b7c0:	45b5                	li	a1,13
  a2b7c2:	377d                	jal	ra,a2b770 <hal_uart_enable_interrupt>
  a2b7c4:	4501                	li	a0,0
  a2b7c6:	8014                	popret	{ra},16

00a2b7c8 <hal_uart_en_idle_int>:
  a2b7c8:	8018                	push	{ra},-16
  a2b7ca:	00c03633          	snez	a2,a2
  a2b7ce:	45b1                	li	a1,12
  a2b7d0:	3745                	jal	ra,a2b770 <hal_uart_enable_interrupt>
  a2b7d2:	4501                	li	a0,0
  a2b7d4:	8014                	popret	{ra},16

00a2b7d6 <hal_uart_en_rx_int>:
  a2b7d6:	8018                	push	{ra},-16
  a2b7d8:	00c03633          	snez	a2,a2
  a2b7dc:	4591                	li	a1,4
  a2b7de:	3f49                	jal	ra,a2b770 <hal_uart_enable_interrupt>
  a2b7e0:	4501                	li	a0,0
  a2b7e2:	8014                	popret	{ra},16

00a2b7e4 <hal_uart_en_tx_int>:
  a2b7e4:	8018                	push	{ra},-16
  a2b7e6:	00c03633          	snez	a2,a2
  a2b7ea:	4589                	li	a1,2
  a2b7ec:	3751                	jal	ra,a2b770 <hal_uart_enable_interrupt>
  a2b7ee:	4501                	li	a0,0
  a2b7f0:	8014                	popret	{ra},16

00a2b7f2 <hal_uart_check_en>:
  a2b7f2:	00a0 5768 079f      	l.li	a5,0xa05768
  a2b7f8:	04a7851b          	addshf	a0,a5,a0,sll,2
  a2b7fc:	4118                	lw	a4,0(a0)
  a2b7fe:	8985                	andi	a1,a1,1
  a2b800:	471c                	lw	a5,8(a4)
  a2b802:	fdf7f793          	andi	a5,a5,-33
  a2b806:	0ab7a79b          	orshf	a5,a5,a1,sll,5
  a2b80a:	c71c                	sw	a5,8(a4)
  a2b80c:	8082                	ret

00a2b80e <hal_uart_parity_en>:
  a2b80e:	00a0 5768 079f      	l.li	a5,0xa05768
  a2b814:	04a7851b          	addshf	a0,a5,a0,sll,2
  a2b818:	4118                	lw	a4,0(a0)
  a2b81a:	8985                	andi	a1,a1,1
  a2b81c:	471c                	lw	a5,8(a4)
  a2b81e:	9bbd                	andi	a5,a5,-17
  a2b820:	08b7a79b          	orshf	a5,a5,a1,sll,4
  a2b824:	c71c                	sw	a5,8(a4)
  a2b826:	8082                	ret

00a2b828 <hal_uart_set_parity>:
  a2b828:	8028                	push	{ra,s0},-16
  a2b82a:	842a                	mv	s0,a0
  a2b82c:	0105873b          	beqi	a1,1,a2b848 <hal_uart_set_parity+0x20>
  a2b830:	c581                	beqz	a1,a2b838 <hal_uart_set_parity+0x10>
  a2b832:	020582bb          	beqi	a1,2,a2b83c <hal_uart_set_parity+0x14>
  a2b836:	8024                	popret	{ra,s0},16
  a2b838:	8020                	pop	{ra,s0},16
  a2b83a:	bf65                	j	a2b7f2 <hal_uart_check_en>
  a2b83c:	4585                	li	a1,1
  a2b83e:	3f55                	jal	ra,a2b7f2 <hal_uart_check_en>
  a2b840:	4585                	li	a1,1
  a2b842:	8522                	mv	a0,s0
  a2b844:	8020                	pop	{ra,s0},16
  a2b846:	b7e1                	j	a2b80e <hal_uart_parity_en>
  a2b848:	376d                	jal	ra,a2b7f2 <hal_uart_check_en>
  a2b84a:	4581                	li	a1,0
  a2b84c:	bfdd                	j	a2b842 <hal_uart_set_parity+0x1a>

00a2b84e <hal_uart_v151_ctrl_set_attr>:
  a2b84e:	8138                	push	{ra,s0-s1},-32
  a2b850:	224c                	lbu	a1,4(a2)
  a2b852:	84b2                	mv	s1,a2
  a2b854:	842a                	mv	s0,a0
  a2b856:	35e1                	jal	ra,a2b71e <hal_uart_set_data_bits>
  a2b858:	30cc                	lbu	a1,5(s1)
  a2b85a:	8522                	mv	a0,s0
  a2b85c:	3df1                	jal	ra,a2b738 <hal_uart_set_stop_bits>
  a2b85e:	20ec                	lbu	a1,6(s1)
  a2b860:	8522                	mv	a0,s0
  a2b862:	37d9                	jal	ra,a2b828 <hal_uart_set_parity>
  a2b864:	408c                	lw	a1,0(s1)
  a2b866:	8522                	mv	a0,s0
  a2b868:	c62e                	sw	a1,12(sp)
  a2b86a:	7bc000ef          	jal	ra,a2c026 <uart_port_get_clock_value>
  a2b86e:	45b2                	lw	a1,12(sp)
  a2b870:	862a                	mv	a2,a0
  a2b872:	8522                	mv	a0,s0
  a2b874:	35a5                	jal	ra,a2b6dc <hal_uart_set_baud_rate>
  a2b876:	4501                	li	a0,0
  a2b878:	8134                	popret	{ra,s0-s1},32

00a2b87a <hal_uart_tx_pause_en>:
  a2b87a:	00a0 5768 079f      	l.li	a5,0xa05768
  a2b880:	04a7851b          	addshf	a0,a5,a0,sll,2
  a2b884:	4118                	lw	a4,0(a0)
  a2b886:	8985                	andi	a1,a1,1
  a2b888:	4b3c                	lw	a5,80(a4)
  a2b88a:	9bf9                	andi	a5,a5,-2
  a2b88c:	8fcd                	or	a5,a5,a1
  a2b88e:	cb3c                	sw	a5,80(a4)
  a2b890:	8082                	ret

00a2b892 <hal_uart_v151_init>:
  a2b892:	8158                	push	{ra,s0-s3},-48
  a2b894:	84b6                	mv	s1,a3
  a2b896:	00251913          	slli	s2,a0,0x2
  a2b89a:	00a3 26f4 069f      	l.li	a3,0xa326f4
  a2b8a0:	89ae                	mv	s3,a1
  a2b8a2:	012685b3          	add	a1,a3,s2
  a2b8a6:	418c                	lw	a1,0(a1)
  a2b8a8:	4294                	lw	a3,0(a3)
  a2b8aa:	00a0 5768 079f      	l.li	a5,0xa05768
  a2b8b0:	01278633          	add	a2,a5,s2
  a2b8b4:	c20c                	sw	a1,0(a2)
  a2b8b6:	c394                	sw	a3,0(a5)
  a2b8b8:	20cc                	lbu	a1,4(s1)
  a2b8ba:	00a0 5764 079f      	l.li	a5,0xa05764
  a2b8c0:	97aa                	add	a5,a5,a0
  a2b8c2:	c63a                	sw	a4,12(sp)
  a2b8c4:	00078023          	sb	zero,0(a5)
  a2b8c8:	842a                	mv	s0,a0
  a2b8ca:	e55ff0ef          	jal	ra,a2b71e <hal_uart_set_data_bits>
  a2b8ce:	30cc                	lbu	a1,5(s1)
  a2b8d0:	8522                	mv	a0,s0
  a2b8d2:	359d                	jal	ra,a2b738 <hal_uart_set_stop_bits>
  a2b8d4:	20ec                	lbu	a1,6(s1)
  a2b8d6:	8522                	mv	a0,s0
  a2b8d8:	3f81                	jal	ra,a2b828 <hal_uart_set_parity>
  a2b8da:	4581                	li	a1,0
  a2b8dc:	8522                	mv	a0,s0
  a2b8de:	3f71                	jal	ra,a2b87a <hal_uart_tx_pause_en>
  a2b8e0:	408c                	lw	a1,0(s1)
  a2b8e2:	8522                	mv	a0,s0
  a2b8e4:	c42e                	sw	a1,8(sp)
  a2b8e6:	740000ef          	jal	ra,a2c026 <uart_port_get_clock_value>
  a2b8ea:	45a2                	lw	a1,8(sp)
  a2b8ec:	862a                	mv	a2,a0
  a2b8ee:	8522                	mv	a0,s0
  a2b8f0:	dedff0ef          	jal	ra,a2b6dc <hal_uart_set_baud_rate>
  a2b8f4:	4529                	li	a0,10
  a2b8f6:	99ffe0ef          	jal	ra,a2a294 <uapi_tcxo_delay_us>
  a2b8fa:	4585                	li	a1,1
  a2b8fc:	4605                	li	a2,1
  a2b8fe:	8522                	mv	a0,s0
  a2b900:	d5fff0ef          	jal	ra,a2b65e <hal_uart_init_fifo>
  a2b904:	00a0 5758 079f      	l.li	a5,0xa05758
  a2b90a:	4732                	lw	a4,12(sp)
  a2b90c:	97ca                	add	a5,a5,s2
  a2b90e:	0137a023          	sw	s3,0(a5)
  a2b912:	4585                	li	a1,1
  a2b914:	030701bb          	beqi	a4,3,a2b91a <hal_uart_v151_init+0x88>
  a2b918:	4581                	li	a1,0
  a2b91a:	8522                	mv	a0,s0
  a2b91c:	e39ff0ef          	jal	ra,a2b754 <hal_uart_auto_flow_ctl_en>
  a2b920:	4501                	li	a0,0
  a2b922:	8154                	popret	{ra,s0-s3},48

00a2b924 <hal_uart_v151_funcs_get>:
  a2b924:	00a3 3e90 051f      	l.li	a0,0xa33e90
  a2b92a:	8082                	ret

00a2b92c <hal_watchdog_register_funcs>:
  a2b92c:	c519                	beqz	a0,a2b93a <hal_watchdog_register_funcs+0xe>
  a2b92e:	00a0 577c 079f      	l.li	a5,0xa0577c
  a2b934:	c388                	sw	a0,0(a5)
  a2b936:	4501                	li	a0,0
  a2b938:	8082                	ret
  a2b93a:	80000537          	lui	a0,0x80000
  a2b93e:	0505                	addi	a0,a0,1 # 80000001 <_gp_+0x7f5cb845>
  a2b940:	8082                	ret

00a2b942 <hal_watchdog_unregister_funcs>:
  a2b942:	00a0 577c 079f      	l.li	a5,0xa0577c
  a2b948:	0007a023          	sw	zero,0(a5)
  a2b94c:	4501                	li	a0,0
  a2b94e:	8082                	ret

00a2b950 <hal_watchdog_get_funcs>:
  a2b950:	00a0 577c 079f      	l.li	a5,0xa0577c
  a2b956:	4388                	lw	a0,0(a5)
  a2b958:	8082                	ret

00a2b95a <hal_watchdog_regs_init>:
  a2b95a:	00a347b7          	lui	a5,0xa34
  a2b95e:	f287a783          	lw	a5,-216(a5) # a33f28 <g_watchdog_base_addr>
  a2b962:	c799                	beqz	a5,a2b970 <hal_watchdog_regs_init+0x16>
  a2b964:	00a0 5780 071f      	l.li	a4,0xa05780
  a2b96a:	c31c                	sw	a5,0(a4)
  a2b96c:	4501                	li	a0,0
  a2b96e:	8082                	ret
  a2b970:	8000 1200 051f      	l.li	a0,0x80001200
  a2b976:	8082                	ret

00a2b978 <hal_watchdog_regs_deinit>:
  a2b978:	00a0 5780 079f      	l.li	a5,0xa05780
  a2b97e:	0007a023          	sw	zero,0(a5)
  a2b982:	8082                	ret

00a2b984 <hal_watchdog_v151_kick>:
  a2b984:	00a057b7          	lui	a5,0xa05
  a2b988:	7807a783          	lw	a5,1920(a5) # a05780 <g_watchdog_regs>
  a2b98c:	5a5a 5a5a 071f      	l.li	a4,0x5a5a5a5a
  a2b992:	c798                	sw	a4,8(a5)
  a2b994:	8082                	ret

00a2b996 <hal_watchdog_v151_get_attr>:
  a2b996:	00a0 5788 079f      	l.li	a5,0xa05788
  a2b99c:	4388                	lw	a0,0(a5)
  a2b99e:	8082                	ret

00a2b9a0 <hal_register_watchdog_v151_callback>:
  a2b9a0:	00a0 5784 079f      	l.li	a5,0xa05784
  a2b9a6:	c388                	sw	a0,0(a5)
  a2b9a8:	8082                	ret

00a2b9aa <hal_watchdog_v151_deinit>:
  a2b9aa:	b7f9                	j	a2b978 <hal_watchdog_regs_deinit>

00a2b9ac <hal_watchdog_v151_init>:
  a2b9ac:	b77d                	j	a2b95a <hal_watchdog_regs_init>

00a2b9ae <hal_watchdog_v151_get_left_time>:
  a2b9ae:	8038                	push	{ra,s0-s1},-16
  a2b9b0:	00a057b7          	lui	a5,0xa05
  a2b9b4:	7807a683          	lw	a3,1920(a5) # a05780 <g_watchdog_regs>
  a2b9b8:	7d100493          	li	s1,2001
  a2b9bc:	843e                	mv	s0,a5
  a2b9be:	5698                	lw	a4,40(a3)
  a2b9c0:	00176713          	ori	a4,a4,1
  a2b9c4:	d698                	sw	a4,40(a3)
  a2b9c6:	78042703          	lw	a4,1920(s0)
  a2b9ca:	571c                	lw	a5,40(a4)
  a2b9cc:	8385                	srli	a5,a5,0x1
  a2b9ce:	8b85                	andi	a5,a5,1
  a2b9d0:	cf99                	beqz	a5,a2b9ee <hal_watchdog_v151_get_left_time+0x40>
  a2b9d2:	4b40                	lw	s0,20(a4)
  a2b9d4:	738000ef          	jal	ra,a2c10c <watchdog_port_get_clock>
  a2b9d8:	3e800793          	li	a5,1000
  a2b9dc:	862a                	mv	a2,a0
  a2b9de:	02f435b3          	mulhu	a1,s0,a5
  a2b9e2:	4681                	li	a3,0
  a2b9e4:	02f40533          	mul	a0,s0,a5
  a2b9e8:	bb5fc0ef          	jal	ra,a2859c <__udivdi3>
  a2b9ec:	8034                	popret	{ra,s0-s1},16
  a2b9ee:	14fd                	addi	s1,s1,-1
  a2b9f0:	c489                	beqz	s1,a2b9fa <hal_watchdog_v151_get_left_time+0x4c>
  a2b9f2:	4505                	li	a0,1
  a2b9f4:	8a1fe0ef          	jal	ra,a2a294 <uapi_tcxo_delay_us>
  a2b9f8:	b7f9                	j	a2b9c6 <hal_watchdog_v151_get_left_time+0x18>
  a2b9fa:	4501                	li	a0,0
  a2b9fc:	bfc5                	j	a2b9ec <hal_watchdog_v151_get_left_time+0x3e>

00a2b9fe <hal_watchdog_v151_clear_interrupt>:
  a2b9fe:	00a057b7          	lui	a5,0xa05
  a2ba02:	7807a703          	lw	a4,1920(a5) # a05780 <g_watchdog_regs>
  a2ba06:	475c                	lw	a5,12(a4)
  a2ba08:	0017e793          	ori	a5,a5,1
  a2ba0c:	c75c                	sw	a5,12(a4)
  a2ba0e:	8082                	ret

00a2ba10 <hal_watchdog_v151_disable>:
  a2ba10:	8018                	push	{ra},-16
  a2ba12:	37f5                	jal	ra,a2b9fe <hal_watchdog_v151_clear_interrupt>
  a2ba14:	00a057b7          	lui	a5,0xa05
  a2ba18:	7807a703          	lw	a4,1920(a5) # a05780 <g_watchdog_regs>
  a2ba1c:	4b1c                	lw	a5,16(a4)
  a2ba1e:	9bf9                	andi	a5,a5,-2
  a2ba20:	cb1c                	sw	a5,16(a4)
  a2ba22:	8014                	popret	{ra},16

00a2ba24 <hal_watchdog_v151_set_attr>:
  a2ba24:	8048                	push	{ra,s0-s2},-16
  a2ba26:	84aa                	mv	s1,a0
  a2ba28:	6e4000ef          	jal	ra,a2c10c <watchdog_port_get_clock>
  a2ba2c:	e489                	bnez	s1,a2ba36 <hal_watchdog_v151_set_attr+0x12>
  a2ba2e:	80000537          	lui	a0,0x80000
  a2ba32:	0505                	addi	a0,a0,1 # 80000001 <_gp_+0x7f5cb845>
  a2ba34:	8044                	popret	{ra,s0-s2},16
  a2ba36:	02950433          	mul	s0,a0,s1
  a2ba3a:	02945933          	divu	s2,s0,s1
  a2ba3e:	6ce000ef          	jal	ra,a2c10c <watchdog_port_get_clock>
  a2ba42:	fea916e3          	bne	s2,a0,a2ba2e <hal_watchdog_v151_set_attr+0xa>
  a2ba46:	fff46a3b          	bltui	s0,255,a2ba2e <hal_watchdog_v151_set_attr+0xa>
  a2ba4a:	00a0 5788 079f      	l.li	a5,0xa05788
  a2ba50:	00a05937          	lui	s2,0xa05
  a2ba54:	c384                	sw	s1,0(a5)
  a2ba56:	78092783          	lw	a5,1920(s2) # a05780 <g_watchdog_regs>
  a2ba5a:	5a5a 5a5a 049f      	l.li	s1,0x5a5a5a5a
  a2ba60:	f0047413          	andi	s0,s0,-256
  a2ba64:	c384                	sw	s1,0(a5)
  a2ba66:	376d                	jal	ra,a2ba10 <hal_watchdog_v151_disable>
  a2ba68:	78092783          	lw	a5,1920(s2)
  a2ba6c:	4b98                	lw	a4,16(a5)
  a2ba6e:	00476713          	ori	a4,a4,4
  a2ba72:	cb98                	sw	a4,16(a5)
  a2ba74:	4b98                	lw	a4,16(a5)
  a2ba76:	fbf77713          	andi	a4,a4,-65
  a2ba7a:	cb98                	sw	a4,16(a5)
  a2ba7c:	4b98                	lw	a4,16(a5)
  a2ba7e:	03876713          	ori	a4,a4,56
  a2ba82:	cb98                	sw	a4,16(a5)
  a2ba84:	43c8                	lw	a0,4(a5)
  a2ba86:	0ff57513          	andi	a0,a0,255
  a2ba8a:	8c49                	or	s0,s0,a0
  a2ba8c:	c3c0                	sw	s0,4(a5)
  a2ba8e:	c784                	sw	s1,8(a5)
  a2ba90:	4501                	li	a0,0
  a2ba92:	b74d                	j	a2ba34 <hal_watchdog_v151_set_attr+0x10>

00a2ba94 <hal_watchdog_v151_enable>:
  a2ba94:	8128                	push	{ra,s0},-32
  a2ba96:	c62a                	sw	a0,12(sp)
  a2ba98:	3fa5                	jal	ra,a2ba10 <hal_watchdog_v151_disable>
  a2ba9a:	4532                	lw	a0,12(sp)
  a2ba9c:	00a05437          	lui	s0,0xa05
  a2baa0:	e105                	bnez	a0,a2bac0 <hal_watchdog_v151_enable+0x2c>
  a2baa2:	78042703          	lw	a4,1920(s0) # a05780 <g_watchdog_regs>
  a2baa6:	4b1c                	lw	a5,16(a4)
  a2baa8:	f7f7f793          	andi	a5,a5,-129
  a2baac:	cb1c                	sw	a5,16(a4)
